   1               		.file	"EndpointStream.c"
   2               	__SREG__ = 0x3f
   3               	__SP_H__ = 0x3e
   4               	__SP_L__ = 0x3d
   5               	__CCP__  = 0x34
   6               	__tmp_reg__ = 0
   7               	__zero_reg__ = 1
  15               	.Ltext0:
  16               		.section	.text.Endpoint_Write_Control_Stream_LE,"ax",@progbits
  17               	.global	Endpoint_Write_Control_Stream_LE
  19               	Endpoint_Write_Control_Stream_LE:
  20               	.LFB84:
  21               	.LSM0:
  22               	.LVL0:
  23               	/* prologue: function */
  24               	/* frame size = 0 */
  25 0000 9C01      		movw r18,r24
  26               	.LVL1:
  27               	.LSM1:
  28 0002 4091 0000 		lds r20,USB_ControlRequest+6
  29 0006 5091 0000 		lds r21,(USB_ControlRequest+6)+1
  30               	.LVL2:
  31 000a 4617      		cp r20,r22
  32 000c 5707      		cpc r21,r23
  33 000e 00F4      		brsh .L2
  34               	.L5:
  35               	.LSM2:
  36 0010 F901      		movw r30,r18
  37               	.LVL3:
  38 0012 90E0      		ldi r25,lo8(0)
  39               	.LVL4:
  40 0014 00C0      		rjmp .L21
  41               	.LVL5:
  42               	.L2:
  43               	.LSM3:
  44 0016 6115      		cp r22,__zero_reg__
  45 0018 7105      		cpc r23,__zero_reg__
  46 001a 01F0      		breq .L4
  47               	.LVL6:
  48 001c AB01      		movw r20,r22
  49 001e 00C0      		rjmp .L5
  50               	.L4:
  51               	.LBB250:
  52               	.LBB251:
  53               	.LSM4:
  54 0020 8091 E800 		lds r24,232
  55 0024 8E77      		andi r24,lo8(126)
  56 0026 8093 E800 		sts 232,r24
  57 002a 40E0      		ldi r20,lo8(0)
  58 002c 50E0      		ldi r21,hi8(0)
  59               	.LVL7:
  60 002e 00C0      		rjmp .L5
  61               	.LVL8:
  62               	.L15:
  63               	.LBE251:
  64               	.LBE250:
  65               	.LBB252:
  66               	.LSM5:
  67 0030 8091 0000 		lds r24,USB_DeviceState
  68               	.LVL9:
  69               	.LSM6:
  70 0034 8823      		tst r24
  71 0036 01F4      		brne .+2
  72 0038 00C0      		rjmp .L6
  73               	.LSM7:
  74 003a 8530      		cpi r24,lo8(5)
  75 003c 01F4      		brne .+2
  76 003e 00C0      		rjmp .L7
  77               	.LBB253:
  78               	.LBB254:
  79               	.LSM8:
  80 0040 8091 E800 		lds r24,232
  81               	.LVL10:
  82               	.LBE254:
  83               	.LBE253:
  84               	.LSM9:
  85 0044 83FF      		sbrs r24,3
  86 0046 00C0      		rjmp .L8
  87 0048 81E0      		ldi r24,lo8(1)
  88 004a 0895      		ret
  89               	.L8:
  90               	.LBB255:
  91               	.LBB256:
  92               	.LSM10:
  93 004c 8091 E800 		lds r24,232
  94               	.LBE256:
  95               	.LBE255:
  96               	.LSM11:
  97 0050 82FD      		sbrc r24,2
  98 0052 00C0      		rjmp .L19
  99               	.LBB257:
 100               	.LBB258:
 101               	.LSM12:
 102 0054 8091 E800 		lds r24,232
 103               	.LBE258:
 104               	.LBE257:
 105               	.LSM13:
 106 0058 80FF      		sbrs r24,0
 107 005a 00C0      		rjmp .L21
 108               	.LBB259:
 109               	.LBB260:
 110               	.LBB261:
 111               	.LSM14:
 112 005c 8091 F300 		lds r24,243
 113 0060 9091 F200 		lds r25,242
 114               	.LVL11:
 115 0064 782F      		mov r23,r24
 116 0066 60E0      		ldi r22,lo8(0)
 117 0068 292F      		mov r18,r25
 118               	.LVL12:
 119 006a 30E0      		ldi r19,lo8(0)
 120 006c 262B      		or r18,r22
 121 006e 372B      		or r19,r23
 122               	.LVL13:
 123 0070 00C0      		rjmp .L11
 124               	.L13:
 125               	.LBE261:
 126               	.LBE260:
 127               	.LSM15:
 128 0072 8191      		ld r24,Z+
 129               	.LBB262:
 130               	.LBB263:
 131               	.LSM16:
 132 0074 8093 F100 		sts 241,r24
 133               	.LBE263:
 134               	.LBE262:
 135               	.LSM17:
 136 0078 4150      		subi r20,lo8(-(-1))
 137 007a 5040      		sbci r21,hi8(-(-1))
 138               	.LSM18:
 139 007c 2F5F      		subi r18,lo8(-(1))
 140 007e 3F4F      		sbci r19,hi8(-(1))
 141               	.L11:
 142               	.LSM19:
 143 0080 4115      		cp r20,__zero_reg__
 144 0082 5105      		cpc r21,__zero_reg__
 145 0084 01F0      		breq .L12
 146 0086 2830      		cpi r18,8
 147 0088 3105      		cpc r19,__zero_reg__
 148 008a 00F0      		brlo .L13
 149               	.L12:
 150               	.LSM20:
 151 008c 90E0      		ldi r25,lo8(0)
 152               	.LVL14:
 153 008e 2830      		cpi r18,8
 154 0090 3105      		cpc r19,__zero_reg__
 155 0092 01F4      		brne .L14
 156 0094 91E0      		ldi r25,lo8(1)
 157               	.L14:
 158               	.LBB264:
 159               	.LBB265:
 160               	.LSM21:
 161 0096 8091 E800 		lds r24,232
 162 009a 8E77      		andi r24,lo8(126)
 163 009c 8093 E800 		sts 232,r24
 164               	.LVL15:
 165               	.L21:
 166               	.LBE265:
 167               	.LBE264:
 168               	.LBE259:
 169               	.LBE252:
 170               	.LSM22:
 171 00a0 4115      		cp r20,__zero_reg__
 172 00a2 5105      		cpc r21,__zero_reg__
 173 00a4 01F4      		brne .L15
 174 00a6 9923      		tst r25
 175 00a8 01F4      		brne .L15
 176 00aa 00C0      		rjmp .L19
 177               	.L16:
 178               	.LBB266:
 179               	.LSM23:
 180 00ac 8091 0000 		lds r24,USB_DeviceState
 181               	.LVL16:
 182               	.LSM24:
 183 00b0 8823      		tst r24
 184 00b2 01F0      		breq .L6
 185               	.LSM25:
 186 00b4 8530      		cpi r24,lo8(5)
 187 00b6 01F0      		breq .L7
 188               	.L19:
 189               	.LBE266:
 190               	.LBB267:
 191               	.LBB268:
 192               	.LSM26:
 193 00b8 8091 E800 		lds r24,232
 194               	.LVL17:
 195               	.LBE268:
 196               	.LBE267:
 197               	.LSM27:
 198 00bc 82FF      		sbrs r24,2
 199 00be 00C0      		rjmp .L16
 200 00c0 80E0      		ldi r24,lo8(0)
 201 00c2 0895      		ret
 202               	.LVL18:
 203               	.L6:
 204 00c4 82E0      		ldi r24,lo8(2)
 205               	.LVL19:
 206 00c6 0895      		ret
 207               	.LVL20:
 208               	.L7:
 209 00c8 83E0      		ldi r24,lo8(3)
 210               	.LVL21:
 211               	.LSM28:
 212 00ca 0895      		ret
 213               	.LFE84:
 215               		.section	.text.Endpoint_Write_Control_PStream_LE,"ax",@progbits
 216               	.global	Endpoint_Write_Control_PStream_LE
 218               	Endpoint_Write_Control_PStream_LE:
 219               	.LFB85:
 220               	.LSM29:
 221               	.LVL22:
 222               	/* prologue: function */
 223               	/* frame size = 0 */
 224 0000 9C01      		movw r18,r24
 225               	.LVL23:
 226               	.LSM30:
 227 0002 4091 0000 		lds r20,USB_ControlRequest+6
 228 0006 5091 0000 		lds r21,(USB_ControlRequest+6)+1
 229               	.LVL24:
 230 000a 4617      		cp r20,r22
 231 000c 5707      		cpc r21,r23
 232 000e 00F4      		brsh .L23
 233               	.L26:
 234               	.LSM31:
 235 0010 E0E0      		ldi r30,lo8(0)
 236               	.LVL25:
 237 0012 00C0      		rjmp .L42
 238               	.LVL26:
 239               	.L23:
 240               	.LSM32:
 241 0014 6115      		cp r22,__zero_reg__
 242 0016 7105      		cpc r23,__zero_reg__
 243 0018 01F0      		breq .L25
 244               	.LVL27:
 245 001a AB01      		movw r20,r22
 246 001c 00C0      		rjmp .L26
 247               	.L25:
 248               	.LBB269:
 249               	.LBB270:
 250               	.LSM33:
 251 001e 8091 E800 		lds r24,232
 252 0022 8E77      		andi r24,lo8(126)
 253 0024 8093 E800 		sts 232,r24
 254 0028 40E0      		ldi r20,lo8(0)
 255 002a 50E0      		ldi r21,hi8(0)
 256               	.LVL28:
 257 002c 00C0      		rjmp .L26
 258               	.LVL29:
 259               	.L36:
 260               	.LBE270:
 261               	.LBE269:
 262               	.LBB271:
 263               	.LSM34:
 264 002e 8091 0000 		lds r24,USB_DeviceState
 265               	.LVL30:
 266               	.LSM35:
 267 0032 8823      		tst r24
 268 0034 01F4      		brne .+2
 269 0036 00C0      		rjmp .L27
 270               	.LSM36:
 271 0038 8530      		cpi r24,lo8(5)
 272 003a 01F4      		brne .+2
 273 003c 00C0      		rjmp .L28
 274               	.LBB272:
 275               	.LBB273:
 276               	.LSM37:
 277 003e 8091 E800 		lds r24,232
 278               	.LVL31:
 279               	.LBE273:
 280               	.LBE272:
 281               	.LSM38:
 282 0042 83FF      		sbrs r24,3
 283 0044 00C0      		rjmp .L29
 284 0046 81E0      		ldi r24,lo8(1)
 285 0048 0895      		ret
 286               	.L29:
 287               	.LBB274:
 288               	.LBB275:
 289               	.LSM39:
 290 004a 8091 E800 		lds r24,232
 291               	.LBE275:
 292               	.LBE274:
 293               	.LSM40:
 294 004e 82FD      		sbrc r24,2
 295 0050 00C0      		rjmp .L40
 296               	.LBB276:
 297               	.LBB277:
 298               	.LSM41:
 299 0052 8091 E800 		lds r24,232
 300               	.LBE277:
 301               	.LBE276:
 302               	.LSM42:
 303 0056 80FF      		sbrs r24,0
 304 0058 00C0      		rjmp .L42
 305               	.LBB278:
 306               	.LBB279:
 307               	.LBB280:
 308               	.LSM43:
 309 005a 8091 F300 		lds r24,243
 310 005e 9091 F200 		lds r25,242
 311               	.LVL32:
 312 0062 782F      		mov r23,r24
 313 0064 60E0      		ldi r22,lo8(0)
 314 0066 892F      		mov r24,r25
 315               	.LVL33:
 316 0068 90E0      		ldi r25,lo8(0)
 317               	.LVL34:
 318 006a 862B      		or r24,r22
 319 006c 972B      		or r25,r23
 320               	.LVL35:
 321 006e 00C0      		rjmp .L32
 322               	.LVL36:
 323               	.L34:
 324               	.LSM44:
 325 0070 F901      		movw r30,r18
 326               	.LVL37:
 327               	.LBE280:
 328               	.LBE279:
 329               	.LBB281:
 330               	.LSM45:
 331 0072 2F5F      		subi r18,lo8(-(1))
 332 0074 3F4F      		sbci r19,hi8(-(1))
 333               	/* #APP */
 334               	 ;  31 "../LUFA101122/LUFA/Drivers/USB/HighLevel/Template/Template_Endpoint_Control_W.c" 1
 335 0076 E491      		lpm r30, Z
 336               		
 337               	 ;  0 "" 2
 338               	.LVL38:
 339               	/* #NOAPP */
 340               	.LBE281:
 341               	.LBB282:
 342               	.LBB283:
 343               	.LSM46:
 344 0078 E093 F100 		sts 241,r30
 345               	.LBE283:
 346               	.LBE282:
 347               	.LSM47:
 348 007c 4150      		subi r20,lo8(-(-1))
 349 007e 5040      		sbci r21,hi8(-(-1))
 350               	.LSM48:
 351 0080 0196      		adiw r24,1
 352               	.LVL39:
 353               	.L32:
 354               	.LSM49:
 355 0082 4115      		cp r20,__zero_reg__
 356 0084 5105      		cpc r21,__zero_reg__
 357 0086 01F0      		breq .L33
 358 0088 8830      		cpi r24,8
 359 008a 9105      		cpc r25,__zero_reg__
 360 008c 00F0      		brlo .L34
 361               	.L33:
 362               	.LSM50:
 363 008e E0E0      		ldi r30,lo8(0)
 364               	.LVL40:
 365 0090 0897      		sbiw r24,8
 366 0092 01F4      		brne .L35
 367 0094 E1E0      		ldi r30,lo8(1)
 368               	.L35:
 369               	.LBB284:
 370               	.LBB285:
 371               	.LSM51:
 372 0096 8091 E800 		lds r24,232
 373               	.LVL41:
 374 009a 8E77      		andi r24,lo8(126)
 375 009c 8093 E800 		sts 232,r24
 376               	.LVL42:
 377               	.L42:
 378               	.LBE285:
 379               	.LBE284:
 380               	.LBE278:
 381               	.LBE271:
 382               	.LSM52:
 383 00a0 4115      		cp r20,__zero_reg__
 384 00a2 5105      		cpc r21,__zero_reg__
 385 00a4 01F0      		breq .+2
 386 00a6 00C0      		rjmp .L36
 387 00a8 EE23      		tst r30
 388 00aa 01F0      		breq .+2
 389 00ac 00C0      		rjmp .L36
 390 00ae 00C0      		rjmp .L40
 391               	.L37:
 392               	.LBB286:
 393               	.LSM53:
 394 00b0 8091 0000 		lds r24,USB_DeviceState
 395               	.LVL43:
 396               	.LSM54:
 397 00b4 8823      		tst r24
 398 00b6 01F0      		breq .L27
 399               	.LSM55:
 400 00b8 8530      		cpi r24,lo8(5)
 401 00ba 01F0      		breq .L28
 402               	.L40:
 403               	.LBE286:
 404               	.LBB287:
 405               	.LBB288:
 406               	.LSM56:
 407 00bc 8091 E800 		lds r24,232
 408               	.LVL44:
 409               	.LBE288:
 410               	.LBE287:
 411               	.LSM57:
 412 00c0 82FF      		sbrs r24,2
 413 00c2 00C0      		rjmp .L37
 414 00c4 80E0      		ldi r24,lo8(0)
 415 00c6 0895      		ret
 416               	.LVL45:
 417               	.L27:
 418 00c8 82E0      		ldi r24,lo8(2)
 419               	.LVL46:
 420 00ca 0895      		ret
 421               	.LVL47:
 422               	.L28:
 423 00cc 83E0      		ldi r24,lo8(3)
 424               	.LVL48:
 425               	.LSM58:
 426 00ce 0895      		ret
 427               	.LFE85:
 429               		.section	.text.Endpoint_Write_Control_Stream_BE,"ax",@progbits
 430               	.global	Endpoint_Write_Control_Stream_BE
 432               	Endpoint_Write_Control_Stream_BE:
 433               	.LFB87:
 434               	.LSM59:
 435               	.LVL49:
 436               	/* prologue: function */
 437               	/* frame size = 0 */
 438 0000 9C01      		movw r18,r24
 439               	.LSM60:
 440 0002 4091 0000 		lds r20,USB_ControlRequest+6
 441 0006 5091 0000 		lds r21,(USB_ControlRequest+6)+1
 442               	.LVL50:
 443 000a 4617      		cp r20,r22
 444 000c 5707      		cpc r21,r23
 445 000e 00F4      		brsh .L44
 446               	.LVL51:
 447               	.L47:
 448               	.LSM61:
 449 0010 FB01      		movw r30,r22
 450               	.LVL52:
 451 0012 3197      		sbiw r30,1
 452 0014 E20F      		add r30,r18
 453 0016 F31F      		adc r31,r19
 454 0018 90E0      		ldi r25,lo8(0)
 455               	.LVL53:
 456 001a 00C0      		rjmp .L63
 457               	.LVL54:
 458               	.L44:
 459               	.LSM62:
 460 001c 6115      		cp r22,__zero_reg__
 461 001e 7105      		cpc r23,__zero_reg__
 462 0020 01F0      		breq .L46
 463               	.LVL55:
 464 0022 AB01      		movw r20,r22
 465 0024 00C0      		rjmp .L47
 466               	.L46:
 467               	.LBB289:
 468               	.LBB290:
 469               	.LSM63:
 470 0026 8091 E800 		lds r24,232
 471 002a 8E77      		andi r24,lo8(126)
 472 002c 8093 E800 		sts 232,r24
 473 0030 40E0      		ldi r20,lo8(0)
 474 0032 50E0      		ldi r21,hi8(0)
 475               	.LVL56:
 476 0034 00C0      		rjmp .L47
 477               	.LVL57:
 478               	.L57:
 479               	.LBE290:
 480               	.LBE289:
 481               	.LBB291:
 482               	.LSM64:
 483 0036 8091 0000 		lds r24,USB_DeviceState
 484               	.LVL58:
 485               	.LSM65:
 486 003a 8823      		tst r24
 487 003c 01F4      		brne .+2
 488 003e 00C0      		rjmp .L48
 489               	.LSM66:
 490 0040 8530      		cpi r24,lo8(5)
 491 0042 01F4      		brne .+2
 492 0044 00C0      		rjmp .L49
 493               	.LBB292:
 494               	.LBB293:
 495               	.LSM67:
 496 0046 8091 E800 		lds r24,232
 497               	.LVL59:
 498               	.LBE293:
 499               	.LBE292:
 500               	.LSM68:
 501 004a 83FF      		sbrs r24,3
 502 004c 00C0      		rjmp .L50
 503 004e 81E0      		ldi r24,lo8(1)
 504 0050 0895      		ret
 505               	.L50:
 506               	.LBB294:
 507               	.LBB295:
 508               	.LSM69:
 509 0052 8091 E800 		lds r24,232
 510               	.LBE295:
 511               	.LBE294:
 512               	.LSM70:
 513 0056 82FD      		sbrc r24,2
 514 0058 00C0      		rjmp .L61
 515               	.LBB296:
 516               	.LBB297:
 517               	.LSM71:
 518 005a 8091 E800 		lds r24,232
 519               	.LBE297:
 520               	.LBE296:
 521               	.LSM72:
 522 005e 80FF      		sbrs r24,0
 523 0060 00C0      		rjmp .L63
 524               	.LBB298:
 525               	.LBB299:
 526               	.LBB300:
 527               	.LSM73:
 528 0062 8091 F300 		lds r24,243
 529 0066 9091 F200 		lds r25,242
 530               	.LVL60:
 531 006a 782F      		mov r23,r24
 532 006c 60E0      		ldi r22,lo8(0)
 533 006e 292F      		mov r18,r25
 534               	.LVL61:
 535 0070 30E0      		ldi r19,lo8(0)
 536 0072 262B      		or r18,r22
 537 0074 372B      		or r19,r23
 538               	.LVL62:
 539 0076 00C0      		rjmp .L53
 540               	.L55:
 541               	.LBE300:
 542               	.LBE299:
 543               	.LSM74:
 544 0078 8081      		ld r24,Z
 545 007a 3197      		sbiw r30,1
 546               	.LBB301:
 547               	.LBB302:
 548               	.LSM75:
 549 007c 8093 F100 		sts 241,r24
 550               	.LBE302:
 551               	.LBE301:
 552               	.LSM76:
 553 0080 4150      		subi r20,lo8(-(-1))
 554 0082 5040      		sbci r21,hi8(-(-1))
 555               	.LSM77:
 556 0084 2F5F      		subi r18,lo8(-(1))
 557 0086 3F4F      		sbci r19,hi8(-(1))
 558               	.L53:
 559               	.LSM78:
 560 0088 4115      		cp r20,__zero_reg__
 561 008a 5105      		cpc r21,__zero_reg__
 562 008c 01F0      		breq .L54
 563 008e 2830      		cpi r18,8
 564 0090 3105      		cpc r19,__zero_reg__
 565 0092 00F0      		brlo .L55
 566               	.L54:
 567               	.LSM79:
 568 0094 90E0      		ldi r25,lo8(0)
 569               	.LVL63:
 570 0096 2830      		cpi r18,8
 571 0098 3105      		cpc r19,__zero_reg__
 572 009a 01F4      		brne .L56
 573 009c 91E0      		ldi r25,lo8(1)
 574               	.L56:
 575               	.LBB303:
 576               	.LBB304:
 577               	.LSM80:
 578 009e 8091 E800 		lds r24,232
 579 00a2 8E77      		andi r24,lo8(126)
 580 00a4 8093 E800 		sts 232,r24
 581               	.LVL64:
 582               	.L63:
 583               	.LBE304:
 584               	.LBE303:
 585               	.LBE298:
 586               	.LBE291:
 587               	.LSM81:
 588 00a8 4115      		cp r20,__zero_reg__
 589 00aa 5105      		cpc r21,__zero_reg__
 590 00ac 01F4      		brne .L57
 591 00ae 9923      		tst r25
 592 00b0 01F4      		brne .L57
 593 00b2 00C0      		rjmp .L61
 594               	.LVL65:
 595               	.L58:
 596               	.LBB305:
 597               	.LSM82:
 598 00b4 8091 0000 		lds r24,USB_DeviceState
 599               	.LVL66:
 600               	.LSM83:
 601 00b8 8823      		tst r24
 602 00ba 01F0      		breq .L48
 603               	.LSM84:
 604 00bc 8530      		cpi r24,lo8(5)
 605 00be 01F0      		breq .L49
 606               	.LVL67:
 607               	.L61:
 608               	.LBE305:
 609               	.LBB306:
 610               	.LBB307:
 611               	.LSM85:
 612 00c0 8091 E800 		lds r24,232
 613               	.LVL68:
 614               	.LBE307:
 615               	.LBE306:
 616               	.LSM86:
 617 00c4 82FF      		sbrs r24,2
 618 00c6 00C0      		rjmp .L58
 619 00c8 80E0      		ldi r24,lo8(0)
 620 00ca 0895      		ret
 621               	.LVL69:
 622               	.L48:
 623 00cc 82E0      		ldi r24,lo8(2)
 624               	.LVL70:
 625 00ce 0895      		ret
 626               	.LVL71:
 627               	.L49:
 628 00d0 83E0      		ldi r24,lo8(3)
 629               	.LVL72:
 630               	.LSM87:
 631 00d2 0895      		ret
 632               	.LFE87:
 634               		.section	.text.Endpoint_Write_Control_PStream_BE,"ax",@progbits
 635               	.global	Endpoint_Write_Control_PStream_BE
 637               	Endpoint_Write_Control_PStream_BE:
 638               	.LFB88:
 639               	.LSM88:
 640               	.LVL73:
 641               	/* prologue: function */
 642               	/* frame size = 0 */
 643 0000 AC01      		movw r20,r24
 644               	.LSM89:
 645 0002 2091 0000 		lds r18,USB_ControlRequest+6
 646 0006 3091 0000 		lds r19,(USB_ControlRequest+6)+1
 647               	.LVL74:
 648 000a 2617      		cp r18,r22
 649 000c 3707      		cpc r19,r23
 650 000e 00F4      		brsh .L65
 651               	.LVL75:
 652               	.L68:
 653               	.LSM90:
 654 0010 6150      		subi r22,lo8(-(-1))
 655 0012 7040      		sbci r23,hi8(-(-1))
 656               	.LVL76:
 657 0014 640F      		add r22,r20
 658 0016 751F      		adc r23,r21
 659 0018 E0E0      		ldi r30,lo8(0)
 660               	.LVL77:
 661 001a 00C0      		rjmp .L84
 662               	.LVL78:
 663               	.L65:
 664               	.LSM91:
 665 001c 6115      		cp r22,__zero_reg__
 666 001e 7105      		cpc r23,__zero_reg__
 667 0020 01F0      		breq .L67
 668               	.LVL79:
 669 0022 9B01      		movw r18,r22
 670 0024 00C0      		rjmp .L68
 671               	.L67:
 672               	.LBB308:
 673               	.LBB309:
 674               	.LSM92:
 675 0026 8091 E800 		lds r24,232
 676 002a 8E77      		andi r24,lo8(126)
 677 002c 8093 E800 		sts 232,r24
 678 0030 20E0      		ldi r18,lo8(0)
 679 0032 30E0      		ldi r19,hi8(0)
 680               	.LVL80:
 681 0034 00C0      		rjmp .L68
 682               	.LVL81:
 683               	.L78:
 684               	.LBE309:
 685               	.LBE308:
 686               	.LBB310:
 687               	.LSM93:
 688 0036 8091 0000 		lds r24,USB_DeviceState
 689               	.LVL82:
 690               	.LSM94:
 691 003a 8823      		tst r24
 692 003c 01F4      		brne .+2
 693 003e 00C0      		rjmp .L69
 694               	.LSM95:
 695 0040 8530      		cpi r24,lo8(5)
 696 0042 01F4      		brne .+2
 697 0044 00C0      		rjmp .L70
 698               	.LBB311:
 699               	.LBB312:
 700               	.LSM96:
 701 0046 8091 E800 		lds r24,232
 702               	.LVL83:
 703               	.LBE312:
 704               	.LBE311:
 705               	.LSM97:
 706 004a 83FF      		sbrs r24,3
 707 004c 00C0      		rjmp .L71
 708 004e 81E0      		ldi r24,lo8(1)
 709 0050 0895      		ret
 710               	.L71:
 711               	.LBB313:
 712               	.LBB314:
 713               	.LSM98:
 714 0052 8091 E800 		lds r24,232
 715               	.LBE314:
 716               	.LBE313:
 717               	.LSM99:
 718 0056 82FD      		sbrc r24,2
 719 0058 00C0      		rjmp .L82
 720               	.LBB315:
 721               	.LBB316:
 722               	.LSM100:
 723 005a 8091 E800 		lds r24,232
 724               	.LBE316:
 725               	.LBE315:
 726               	.LSM101:
 727 005e 80FF      		sbrs r24,0
 728 0060 00C0      		rjmp .L84
 729               	.LBB317:
 730               	.LBB318:
 731               	.LBB319:
 732               	.LSM102:
 733 0062 8091 F300 		lds r24,243
 734 0066 9091 F200 		lds r25,242
 735               	.LVL84:
 736 006a 582F      		mov r21,r24
 737 006c 40E0      		ldi r20,lo8(0)
 738               	.LVL85:
 739 006e 892F      		mov r24,r25
 740               	.LVL86:
 741 0070 90E0      		ldi r25,lo8(0)
 742               	.LVL87:
 743 0072 842B      		or r24,r20
 744 0074 952B      		or r25,r21
 745               	.LVL88:
 746 0076 00C0      		rjmp .L74
 747               	.LVL89:
 748               	.L76:
 749               	.LSM103:
 750 0078 FB01      		movw r30,r22
 751               	.LVL90:
 752               	.LBE319:
 753               	.LBE318:
 754               	.LBB320:
 755               	.LSM104:
 756 007a 6150      		subi r22,lo8(-(-1))
 757 007c 7040      		sbci r23,hi8(-(-1))
 758               	/* #APP */
 759               	 ;  31 "../LUFA101122/LUFA/Drivers/USB/HighLevel/Template/Template_Endpoint_Control_W.c" 1
 760 007e E491      		lpm r30, Z
 761               		
 762               	 ;  0 "" 2
 763               	.LVL91:
 764               	/* #NOAPP */
 765               	.LBE320:
 766               	.LBB321:
 767               	.LBB322:
 768               	.LSM105:
 769 0080 E093 F100 		sts 241,r30
 770               	.LBE322:
 771               	.LBE321:
 772               	.LSM106:
 773 0084 2150      		subi r18,lo8(-(-1))
 774 0086 3040      		sbci r19,hi8(-(-1))
 775               	.LSM107:
 776 0088 0196      		adiw r24,1
 777               	.LVL92:
 778               	.L74:
 779               	.LSM108:
 780 008a 2115      		cp r18,__zero_reg__
 781 008c 3105      		cpc r19,__zero_reg__
 782 008e 01F0      		breq .L75
 783 0090 8830      		cpi r24,8
 784 0092 9105      		cpc r25,__zero_reg__
 785 0094 00F0      		brlo .L76
 786               	.L75:
 787               	.LSM109:
 788 0096 E0E0      		ldi r30,lo8(0)
 789               	.LVL93:
 790 0098 0897      		sbiw r24,8
 791 009a 01F4      		brne .L77
 792 009c E1E0      		ldi r30,lo8(1)
 793               	.L77:
 794               	.LBB323:
 795               	.LBB324:
 796               	.LSM110:
 797 009e 8091 E800 		lds r24,232
 798               	.LVL94:
 799 00a2 8E77      		andi r24,lo8(126)
 800 00a4 8093 E800 		sts 232,r24
 801               	.LVL95:
 802               	.L84:
 803               	.LBE324:
 804               	.LBE323:
 805               	.LBE317:
 806               	.LBE310:
 807               	.LSM111:
 808 00a8 2115      		cp r18,__zero_reg__
 809 00aa 3105      		cpc r19,__zero_reg__
 810 00ac 01F0      		breq .+2
 811 00ae 00C0      		rjmp .L78
 812 00b0 EE23      		tst r30
 813 00b2 01F0      		breq .+2
 814 00b4 00C0      		rjmp .L78
 815 00b6 00C0      		rjmp .L82
 816               	.LVL96:
 817               	.L79:
 818               	.LBB325:
 819               	.LSM112:
 820 00b8 8091 0000 		lds r24,USB_DeviceState
 821               	.LVL97:
 822               	.LSM113:
 823 00bc 8823      		tst r24
 824 00be 01F0      		breq .L69
 825               	.LSM114:
 826 00c0 8530      		cpi r24,lo8(5)
 827 00c2 01F0      		breq .L70
 828               	.LVL98:
 829               	.L82:
 830               	.LBE325:
 831               	.LBB326:
 832               	.LBB327:
 833               	.LSM115:
 834 00c4 8091 E800 		lds r24,232
 835               	.LVL99:
 836               	.LBE327:
 837               	.LBE326:
 838               	.LSM116:
 839 00c8 82FF      		sbrs r24,2
 840 00ca 00C0      		rjmp .L79
 841 00cc 80E0      		ldi r24,lo8(0)
 842 00ce 0895      		ret
 843               	.LVL100:
 844               	.L69:
 845 00d0 82E0      		ldi r24,lo8(2)
 846               	.LVL101:
 847 00d2 0895      		ret
 848               	.LVL102:
 849               	.L70:
 850 00d4 83E0      		ldi r24,lo8(3)
 851               	.LVL103:
 852               	.LSM117:
 853 00d6 0895      		ret
 854               	.LFE88:
 856               		.section	.text.Endpoint_Read_Control_Stream_LE,"ax",@progbits
 857               	.global	Endpoint_Read_Control_Stream_LE
 859               	Endpoint_Read_Control_Stream_LE:
 860               	.LFB90:
 861               	.LSM118:
 862               	.LVL104:
 863               	/* prologue: function */
 864               	/* frame size = 0 */
 865 0000 9C01      		movw r18,r24
 866               	.LVL105:
 867               	.LSM119:
 868 0002 6115      		cp r22,__zero_reg__
 869 0004 7105      		cpc r23,__zero_reg__
 870 0006 01F4      		brne .L86
 871               	.LBB328:
 872               	.LBB329:
 873               	.LSM120:
 874 0008 8091 E800 		lds r24,232
 875 000c 8B77      		andi r24,lo8(123)
 876 000e 8093 E800 		sts 232,r24
 877               	.L86:
 878               	.LBE329:
 879               	.LBE328:
 880               	.LSM121:
 881 0012 F901      		movw r30,r18
 882               	.LVL106:
 883 0014 00C0      		rjmp .L87
 884               	.LVL107:
 885               	.L100:
 886               	.LBB330:
 887               	.LSM122:
 888 0016 8091 0000 		lds r24,USB_DeviceState
 889               	.LVL108:
 890               	.LSM123:
 891 001a 8823      		tst r24
 892 001c 01F0      		breq .L88
 893               	.LSM124:
 894 001e 8530      		cpi r24,lo8(5)
 895 0020 01F0      		breq .L89
 896               	.LBB331:
 897               	.LBB332:
 898               	.LSM125:
 899 0022 8091 E800 		lds r24,232
 900               	.LVL109:
 901               	.LBE332:
 902               	.LBE331:
 903               	.LSM126:
 904 0026 83FF      		sbrs r24,3
 905 0028 00C0      		rjmp .L90
 906 002a 81E0      		ldi r24,lo8(1)
 907 002c 0895      		ret
 908               	.L90:
 909               	.LBB333:
 910               	.LBB334:
 911               	.LSM127:
 912 002e 8091 E800 		lds r24,232
 913               	.LBE334:
 914               	.LBE333:
 915               	.LSM128:
 916 0032 82FF      		sbrs r24,2
 917 0034 00C0      		rjmp .L100
 918 0036 00C0      		rjmp .L99
 919               	.LVL110:
 920               	.L95:
 921               	.LBB335:
 922               	.LBB336:
 923               	.LSM129:
 924 0038 8091 F100 		lds r24,241
 925               	.LBE336:
 926               	.LBE335:
 927               	.LSM130:
 928 003c 8193      		st Z+,r24
 929               	.LSM131:
 930 003e 6150      		subi r22,lo8(-(-1))
 931 0040 7040      		sbci r23,hi8(-(-1))
 932               	.LVL111:
 933               	.LSM132:
 934 0042 01F0      		breq .L94
 935               	.LVL112:
 936               	.L99:
 937               	.LBB337:
 938               	.LBB338:
 939               	.LSM133:
 940 0044 2091 F300 		lds r18,243
 941 0048 8091 F200 		lds r24,242
 942               	.LBE338:
 943               	.LBE337:
 944               	.LSM134:
 945 004c 322F      		mov r19,r18
 946 004e 20E0      		ldi r18,lo8(0)
 947 0050 90E0      		ldi r25,lo8(0)
 948 0052 822B      		or r24,r18
 949 0054 932B      		or r25,r19
 950 0056 892B      		or r24,r25
 951 0058 01F4      		brne .L95
 952               	.L94:
 953               	.LBB339:
 954               	.LBB340:
 955               	.LSM135:
 956 005a 8091 E800 		lds r24,232
 957 005e 8B77      		andi r24,lo8(123)
 958 0060 8093 E800 		sts 232,r24
 959               	.LVL113:
 960               	.L87:
 961               	.LBE340:
 962               	.LBE339:
 963               	.LBE330:
 964               	.LSM136:
 965 0064 6115      		cp r22,__zero_reg__
 966 0066 7105      		cpc r23,__zero_reg__
 967 0068 01F4      		brne .L100
 968 006a 00C0      		rjmp .L101
 969               	.L97:
 970               	.LBB341:
 971               	.LSM137:
 972 006c 8091 0000 		lds r24,USB_DeviceState
 973               	.LVL114:
 974               	.LSM138:
 975 0070 8823      		tst r24
 976 0072 01F0      		breq .L88
 977               	.LSM139:
 978 0074 8530      		cpi r24,lo8(5)
 979 0076 01F0      		breq .L89
 980               	.L101:
 981               	.LBE341:
 982               	.LBB342:
 983               	.LBB343:
 984               	.LSM140:
 985 0078 8091 E800 		lds r24,232
 986               	.LVL115:
 987               	.LBE343:
 988               	.LBE342:
 989               	.LSM141:
 990 007c 80FF      		sbrs r24,0
 991 007e 00C0      		rjmp .L97
 992 0080 80E0      		ldi r24,lo8(0)
 993 0082 0895      		ret
 994               	.LVL116:
 995               	.L88:
 996 0084 82E0      		ldi r24,lo8(2)
 997               	.LVL117:
 998 0086 0895      		ret
 999               	.LVL118:
 1000               	.L89:
 1001 0088 83E0      		ldi r24,lo8(3)
 1002               	.LVL119:
 1003               	.LSM142:
 1004 008a 0895      		ret
 1005               	.LFE90:
 1007               		.section	.text.Endpoint_Read_Control_Stream_BE,"ax",@progbits
 1008               	.global	Endpoint_Read_Control_Stream_BE
 1010               	Endpoint_Read_Control_Stream_BE:
 1011               	.LFB92:
 1012               	.LSM143:
 1013               	.LVL120:
 1014               	/* prologue: function */
 1015               	/* frame size = 0 */
 1016 0000 9C01      		movw r18,r24
 1017               	.LSM144:
 1018 0002 6115      		cp r22,__zero_reg__
 1019 0004 7105      		cpc r23,__zero_reg__
 1020 0006 01F0      		breq .L103
 1021               	.LVL121:
 1022 0008 AB01      		movw r20,r22
 1023 000a 00C0      		rjmp .L104
 1024               	.LVL122:
 1025               	.L103:
 1026               	.LBB344:
 1027               	.LBB345:
 1028               	.LSM145:
 1029 000c 8091 E800 		lds r24,232
 1030 0010 8B77      		andi r24,lo8(123)
 1031 0012 8093 E800 		sts 232,r24
 1032 0016 40E0      		ldi r20,lo8(0)
 1033 0018 50E0      		ldi r21,hi8(0)
 1034               	.LVL123:
 1035               	.L104:
 1036               	.LBE345:
 1037               	.LBE344:
 1038               	.LSM146:
 1039 001a FB01      		movw r30,r22
 1040               	.LVL124:
 1041 001c 3197      		sbiw r30,1
 1042 001e E20F      		add r30,r18
 1043 0020 F31F      		adc r31,r19
 1044 0022 00C0      		rjmp .L105
 1045               	.L118:
 1046               	.LBB346:
 1047               	.LSM147:
 1048 0024 8091 0000 		lds r24,USB_DeviceState
 1049               	.LVL125:
 1050               	.LSM148:
 1051 0028 8823      		tst r24
 1052 002a 01F0      		breq .L106
 1053               	.LSM149:
 1054 002c 8530      		cpi r24,lo8(5)
 1055 002e 01F0      		breq .L107
 1056               	.LBB347:
 1057               	.LBB348:
 1058               	.LSM150:
 1059 0030 8091 E800 		lds r24,232
 1060               	.LVL126:
 1061               	.LBE348:
 1062               	.LBE347:
 1063               	.LSM151:
 1064 0034 83FF      		sbrs r24,3
 1065 0036 00C0      		rjmp .L108
 1066 0038 81E0      		ldi r24,lo8(1)
 1067 003a 0895      		ret
 1068               	.L108:
 1069               	.LBB349:
 1070               	.LBB350:
 1071               	.LSM152:
 1072 003c 8091 E800 		lds r24,232
 1073               	.LBE350:
 1074               	.LBE349:
 1075               	.LSM153:
 1076 0040 82FF      		sbrs r24,2
 1077 0042 00C0      		rjmp .L118
 1078 0044 00C0      		rjmp .L117
 1079               	.LVL127:
 1080               	.L113:
 1081               	.LBB351:
 1082               	.LBB352:
 1083               	.LSM154:
 1084 0046 8091 F100 		lds r24,241
 1085               	.LBE352:
 1086               	.LBE351:
 1087               	.LSM155:
 1088 004a 8083      		st Z,r24
 1089 004c 3197      		sbiw r30,1
 1090               	.LSM156:
 1091 004e 4150      		subi r20,lo8(-(-1))
 1092 0050 5040      		sbci r21,hi8(-(-1))
 1093               	.LSM157:
 1094 0052 01F0      		breq .L112
 1095               	.LVL128:
 1096               	.L117:
 1097               	.LBB353:
 1098               	.LBB354:
 1099               	.LSM158:
 1100 0054 2091 F300 		lds r18,243
 1101               	.LVL129:
 1102 0058 8091 F200 		lds r24,242
 1103               	.LBE354:
 1104               	.LBE353:
 1105               	.LSM159:
 1106 005c 322F      		mov r19,r18
 1107 005e 20E0      		ldi r18,lo8(0)
 1108 0060 90E0      		ldi r25,lo8(0)
 1109 0062 822B      		or r24,r18
 1110 0064 932B      		or r25,r19
 1111 0066 892B      		or r24,r25
 1112 0068 01F4      		brne .L113
 1113               	.L112:
 1114               	.LBB355:
 1115               	.LBB356:
 1116               	.LSM160:
 1117 006a 8091 E800 		lds r24,232
 1118 006e 8B77      		andi r24,lo8(123)
 1119 0070 8093 E800 		sts 232,r24
 1120               	.LVL130:
 1121               	.L105:
 1122               	.LBE356:
 1123               	.LBE355:
 1124               	.LBE346:
 1125               	.LSM161:
 1126 0074 4115      		cp r20,__zero_reg__
 1127 0076 5105      		cpc r21,__zero_reg__
 1128 0078 01F4      		brne .L118
 1129 007a 00C0      		rjmp .L119
 1130               	.LVL131:
 1131               	.L115:
 1132               	.LBB357:
 1133               	.LSM162:
 1134 007c 8091 0000 		lds r24,USB_DeviceState
 1135               	.LVL132:
 1136               	.LSM163:
 1137 0080 8823      		tst r24
 1138 0082 01F0      		breq .L106
 1139               	.LSM164:
 1140 0084 8530      		cpi r24,lo8(5)
 1141 0086 01F0      		breq .L107
 1142               	.LVL133:
 1143               	.L119:
 1144               	.LBE357:
 1145               	.LBB358:
 1146               	.LBB359:
 1147               	.LSM165:
 1148 0088 8091 E800 		lds r24,232
 1149               	.LVL134:
 1150               	.LBE359:
 1151               	.LBE358:
 1152               	.LSM166:
 1153 008c 80FF      		sbrs r24,0
 1154 008e 00C0      		rjmp .L115
 1155 0090 80E0      		ldi r24,lo8(0)
 1156 0092 0895      		ret
 1157               	.LVL135:
 1158               	.L106:
 1159 0094 82E0      		ldi r24,lo8(2)
 1160               	.LVL136:
 1161 0096 0895      		ret
 1162               	.LVL137:
 1163               	.L107:
 1164 0098 83E0      		ldi r24,lo8(3)
 1165               	.LVL138:
 1166               	.LSM167:
 1167 009a 0895      		ret
 1168               	.LFE92:
 1170               		.section	.text.Endpoint_Read_Control_EStream_BE,"ax",@progbits
 1171               	.global	Endpoint_Read_Control_EStream_BE
 1173               	Endpoint_Read_Control_EStream_BE:
 1174               	.LFB93:
 1175               	.LSM168:
 1176               	.LVL139:
 1177 0000 EF92      		push r14
 1178 0002 FF92      		push r15
 1179 0004 0F93      		push r16
 1180 0006 1F93      		push r17
 1181 0008 CF93      		push r28
 1182 000a DF93      		push r29
 1183               	/* prologue: function */
 1184               	/* frame size = 0 */
 1185 000c 9C01      		movw r18,r24
 1186               	.LSM169:
 1187 000e 6115      		cp r22,__zero_reg__
 1188 0010 7105      		cpc r23,__zero_reg__
 1189 0012 01F0      		breq .L121
 1190               	.LVL140:
 1191 0014 7B01      		movw r14,r22
 1192 0016 00C0      		rjmp .L122
 1193               	.LVL141:
 1194               	.L121:
 1195               	.LBB360:
 1196               	.LBB361:
 1197               	.LSM170:
 1198 0018 8091 E800 		lds r24,232
 1199 001c 8B77      		andi r24,lo8(123)
 1200 001e 8093 E800 		sts 232,r24
 1201 0022 EE24      		clr r14
 1202 0024 FF24      		clr r15
 1203               	.LVL142:
 1204               	.L122:
 1205               	.LBE361:
 1206               	.LBE360:
 1207               	.LSM171:
 1208 0026 AB01      		movw r20,r22
 1209               	.LVL143:
 1210 0028 4150      		subi r20,lo8(-(-1))
 1211 002a 5040      		sbci r21,hi8(-(-1))
 1212 002c 420F      		add r20,r18
 1213 002e 531F      		adc r21,r19
 1214 0030 00C0      		rjmp .L123
 1215               	.LVL144:
 1216               	.L136:
 1217               	.LBB362:
 1218               	.LSM172:
 1219 0032 8091 0000 		lds r24,USB_DeviceState
 1220               	.LVL145:
 1221               	.LSM173:
 1222 0036 8823      		tst r24
 1223 0038 01F0      		breq .L124
 1224               	.LSM174:
 1225 003a 8530      		cpi r24,lo8(5)
 1226 003c 01F0      		breq .L125
 1227               	.LBB363:
 1228               	.LBB364:
 1229               	.LSM175:
 1230 003e 8091 E800 		lds r24,232
 1231               	.LVL146:
 1232               	.LBE364:
 1233               	.LBE363:
 1234               	.LSM176:
 1235 0042 83FF      		sbrs r24,3
 1236 0044 00C0      		rjmp .L126
 1237 0046 81E0      		ldi r24,lo8(1)
 1238 0048 00C0      		rjmp .L127
 1239               	.L126:
 1240               	.LBB365:
 1241               	.LBB366:
 1242               	.LSM177:
 1243 004a 8091 E800 		lds r24,232
 1244               	.LBE366:
 1245               	.LBE365:
 1246               	.LSM178:
 1247 004e 82FF      		sbrs r24,2
 1248 0050 00C0      		rjmp .L136
 1249 0052 00C0      		rjmp .L135
 1250               	.LVL147:
 1251               	.L131:
 1252               	.LSM179:
 1253 0054 EA01      		movw r28,r20
 1254 0056 2197      		sbiw r28,1
 1255               	.LVL148:
 1256               	.LBB367:
 1257               	.LBB368:
 1258               	.LSM180:
 1259 0058 6091 F100 		lds r22,241
 1260               	.LBE368:
 1261               	.LBE367:
 1262               	.LSM181:
 1263 005c CA01      		movw r24,r20
 1264 005e 0E94 0000 		call __eeupd_byte_m32u4
 1265               	.LSM182:
 1266 0062 0894      		sec
 1267 0064 E108      		sbc r14,__zero_reg__
 1268 0066 F108      		sbc r15,__zero_reg__
 1269               	.LSM183:
 1270 0068 E114      		cp r14,__zero_reg__
 1271 006a F104      		cpc r15,__zero_reg__
 1272 006c 01F0      		breq .L130
 1273 006e AE01      		movw r20,r28
 1274               	.LVL149:
 1275               	.L135:
 1276               	.LBB369:
 1277               	.LBB370:
 1278               	.LSM184:
 1279 0070 2091 F300 		lds r18,243
 1280               	.LVL150:
 1281 0074 8091 F200 		lds r24,242
 1282               	.LBE370:
 1283               	.LBE369:
 1284               	.LSM185:
 1285 0078 122F      		mov r17,r18
 1286 007a 00E0      		ldi r16,lo8(0)
 1287 007c 90E0      		ldi r25,lo8(0)
 1288 007e 802B      		or r24,r16
 1289 0080 912B      		or r25,r17
 1290 0082 892B      		or r24,r25
 1291 0084 01F4      		brne .L131
 1292 0086 EA01      		movw r28,r20
 1293               	.LVL151:
 1294               	.L130:
 1295               	.LBB371:
 1296               	.LBB372:
 1297               	.LSM186:
 1298 0088 8091 E800 		lds r24,232
 1299 008c 8B77      		andi r24,lo8(123)
 1300 008e 8093 E800 		sts 232,r24
 1301 0092 AE01      		movw r20,r28
 1302               	.LVL152:
 1303               	.L123:
 1304               	.LBE372:
 1305               	.LBE371:
 1306               	.LBE362:
 1307               	.LSM187:
 1308 0094 E114      		cp r14,__zero_reg__
 1309 0096 F104      		cpc r15,__zero_reg__
 1310 0098 01F4      		brne .L136
 1311 009a 00C0      		rjmp .L137
 1312               	.LVL153:
 1313               	.L133:
 1314               	.LBB373:
 1315               	.LSM188:
 1316 009c 8091 0000 		lds r24,USB_DeviceState
 1317               	.LVL154:
 1318               	.LSM189:
 1319 00a0 8823      		tst r24
 1320 00a2 01F0      		breq .L124
 1321               	.LSM190:
 1322 00a4 8530      		cpi r24,lo8(5)
 1323 00a6 01F0      		breq .L125
 1324               	.LVL155:
 1325               	.L137:
 1326               	.LBE373:
 1327               	.LBB374:
 1328               	.LBB375:
 1329               	.LSM191:
 1330 00a8 8091 E800 		lds r24,232
 1331               	.LVL156:
 1332               	.LBE375:
 1333               	.LBE374:
 1334               	.LSM192:
 1335 00ac 80FF      		sbrs r24,0
 1336 00ae 00C0      		rjmp .L133
 1337 00b0 80E0      		ldi r24,lo8(0)
 1338 00b2 00C0      		rjmp .L127
 1339               	.LVL157:
 1340               	.L124:
 1341 00b4 82E0      		ldi r24,lo8(2)
 1342               	.LVL158:
 1343 00b6 00C0      		rjmp .L127
 1344               	.LVL159:
 1345               	.L125:
 1346 00b8 83E0      		ldi r24,lo8(3)
 1347               	.LVL160:
 1348               	.L127:
 1349               	/* epilogue start */
 1350               	.LSM193:
 1351 00ba DF91      		pop r29
 1352 00bc CF91      		pop r28
 1353 00be 1F91      		pop r17
 1354 00c0 0F91      		pop r16
 1355 00c2 FF90      		pop r15
 1356 00c4 EF90      		pop r14
 1357               	.LVL161:
 1358 00c6 0895      		ret
 1359               	.LFE93:
 1361               		.section	.text.Endpoint_Read_Control_EStream_LE,"ax",@progbits
 1362               	.global	Endpoint_Read_Control_EStream_LE
 1364               	Endpoint_Read_Control_EStream_LE:
 1365               	.LFB91:
 1366               	.LSM194:
 1367               	.LVL162:
 1368 0000 EF92      		push r14
 1369 0002 FF92      		push r15
 1370 0004 0F93      		push r16
 1371 0006 1F93      		push r17
 1372 0008 CF93      		push r28
 1373 000a DF93      		push r29
 1374               	/* prologue: function */
 1375               	/* frame size = 0 */
 1376 000c 9C01      		movw r18,r24
 1377               	.LVL163:
 1378 000e 7B01      		movw r14,r22
 1379               	.LSM195:
 1380 0010 6115      		cp r22,__zero_reg__
 1381 0012 7105      		cpc r23,__zero_reg__
 1382 0014 01F4      		brne .L139
 1383               	.LBB376:
 1384               	.LBB377:
 1385               	.LSM196:
 1386 0016 8091 E800 		lds r24,232
 1387 001a 8B77      		andi r24,lo8(123)
 1388 001c 8093 E800 		sts 232,r24
 1389               	.L139:
 1390               	.LBE377:
 1391               	.LBE376:
 1392               	.LSM197:
 1393 0020 A901      		movw r20,r18
 1394               	.LVL164:
 1395 0022 00C0      		rjmp .L140
 1396               	.LVL165:
 1397               	.L153:
 1398               	.LBB378:
 1399               	.LSM198:
 1400 0024 8091 0000 		lds r24,USB_DeviceState
 1401               	.LVL166:
 1402               	.LSM199:
 1403 0028 8823      		tst r24
 1404 002a 01F0      		breq .L141
 1405               	.LSM200:
 1406 002c 8530      		cpi r24,lo8(5)
 1407 002e 01F0      		breq .L142
 1408               	.LBB379:
 1409               	.LBB380:
 1410               	.LSM201:
 1411 0030 8091 E800 		lds r24,232
 1412               	.LVL167:
 1413               	.LBE380:
 1414               	.LBE379:
 1415               	.LSM202:
 1416 0034 83FF      		sbrs r24,3
 1417 0036 00C0      		rjmp .L143
 1418 0038 81E0      		ldi r24,lo8(1)
 1419 003a 00C0      		rjmp .L144
 1420               	.L143:
 1421               	.LBB381:
 1422               	.LBB382:
 1423               	.LSM203:
 1424 003c 8091 E800 		lds r24,232
 1425               	.LBE382:
 1426               	.LBE381:
 1427               	.LSM204:
 1428 0040 82FF      		sbrs r24,2
 1429 0042 00C0      		rjmp .L153
 1430 0044 00C0      		rjmp .L152
 1431               	.LVL168:
 1432               	.L148:
 1433               	.LSM205:
 1434 0046 EA01      		movw r28,r20
 1435 0048 2196      		adiw r28,1
 1436               	.LVL169:
 1437               	.LBB383:
 1438               	.LBB384:
 1439               	.LSM206:
 1440 004a 6091 F100 		lds r22,241
 1441               	.LBE384:
 1442               	.LBE383:
 1443               	.LSM207:
 1444 004e CA01      		movw r24,r20
 1445 0050 0E94 0000 		call __eeupd_byte_m32u4
 1446               	.LSM208:
 1447 0054 0894      		sec
 1448 0056 E108      		sbc r14,__zero_reg__
 1449 0058 F108      		sbc r15,__zero_reg__
 1450               	.LSM209:
 1451 005a E114      		cp r14,__zero_reg__
 1452 005c F104      		cpc r15,__zero_reg__
 1453 005e 01F0      		breq .L147
 1454 0060 AE01      		movw r20,r28
 1455               	.LVL170:
 1456               	.L152:
 1457               	.LBB385:
 1458               	.LBB386:
 1459               	.LSM210:
 1460 0062 2091 F300 		lds r18,243
 1461 0066 8091 F200 		lds r24,242
 1462               	.LBE386:
 1463               	.LBE385:
 1464               	.LSM211:
 1465 006a 122F      		mov r17,r18
 1466 006c 00E0      		ldi r16,lo8(0)
 1467 006e 90E0      		ldi r25,lo8(0)
 1468 0070 802B      		or r24,r16
 1469 0072 912B      		or r25,r17
 1470 0074 892B      		or r24,r25
 1471 0076 01F4      		brne .L148
 1472 0078 EA01      		movw r28,r20
 1473               	.LVL171:
 1474               	.L147:
 1475               	.LBB387:
 1476               	.LBB388:
 1477               	.LSM212:
 1478 007a 8091 E800 		lds r24,232
 1479 007e 8B77      		andi r24,lo8(123)
 1480 0080 8093 E800 		sts 232,r24
 1481 0084 AE01      		movw r20,r28
 1482               	.LVL172:
 1483               	.L140:
 1484               	.LBE388:
 1485               	.LBE387:
 1486               	.LBE378:
 1487               	.LSM213:
 1488 0086 E114      		cp r14,__zero_reg__
 1489 0088 F104      		cpc r15,__zero_reg__
 1490 008a 01F4      		brne .L153
 1491 008c 00C0      		rjmp .L154
 1492               	.L150:
 1493               	.LBB389:
 1494               	.LSM214:
 1495 008e 8091 0000 		lds r24,USB_DeviceState
 1496               	.LVL173:
 1497               	.LSM215:
 1498 0092 8823      		tst r24
 1499 0094 01F0      		breq .L141
 1500               	.LSM216:
 1501 0096 8530      		cpi r24,lo8(5)
 1502 0098 01F0      		breq .L142
 1503               	.L154:
 1504               	.LBE389:
 1505               	.LBB390:
 1506               	.LBB391:
 1507               	.LSM217:
 1508 009a 8091 E800 		lds r24,232
 1509               	.LVL174:
 1510               	.LBE391:
 1511               	.LBE390:
 1512               	.LSM218:
 1513 009e 80FF      		sbrs r24,0
 1514 00a0 00C0      		rjmp .L150
 1515 00a2 80E0      		ldi r24,lo8(0)
 1516 00a4 00C0      		rjmp .L144
 1517               	.LVL175:
 1518               	.L141:
 1519 00a6 82E0      		ldi r24,lo8(2)
 1520               	.LVL176:
 1521 00a8 00C0      		rjmp .L144
 1522               	.LVL177:
 1523               	.L142:
 1524 00aa 83E0      		ldi r24,lo8(3)
 1525               	.LVL178:
 1526               	.L144:
 1527               	/* epilogue start */
 1528               	.LSM219:
 1529 00ac DF91      		pop r29
 1530 00ae CF91      		pop r28
 1531 00b0 1F91      		pop r17
 1532 00b2 0F91      		pop r16
 1533 00b4 FF90      		pop r15
 1534 00b6 EF90      		pop r14
 1535               	.LVL179:
 1536 00b8 0895      		ret
 1537               	.LFE91:
 1539               		.section	.text.Endpoint_Write_Control_EStream_BE,"ax",@progbits
 1540               	.global	Endpoint_Write_Control_EStream_BE
 1542               	Endpoint_Write_Control_EStream_BE:
 1543               	.LFB89:
 1544               	.LSM220:
 1545               	.LVL180:
 1546 0000 CF92      		push r12
 1547 0002 DF92      		push r13
 1548 0004 EF92      		push r14
 1549 0006 FF92      		push r15
 1550 0008 0F93      		push r16
 1551 000a 1F93      		push r17
 1552 000c CF93      		push r28
 1553 000e DF93      		push r29
 1554               	/* prologue: function */
 1555               	/* frame size = 0 */
 1556 0010 9C01      		movw r18,r24
 1557               	.LSM221:
 1558 0012 E090 0000 		lds r14,USB_ControlRequest+6
 1559 0016 F090 0000 		lds r15,(USB_ControlRequest+6)+1
 1560               	.LVL181:
 1561 001a E616      		cp r14,r22
 1562 001c F706      		cpc r15,r23
 1563 001e 00F4      		brsh .L156
 1564               	.LVL182:
 1565               	.L159:
 1566               	.LSM222:
 1567 0020 6150      		subi r22,lo8(-(-1))
 1568 0022 7040      		sbci r23,hi8(-(-1))
 1569               	.LVL183:
 1570 0024 620F      		add r22,r18
 1571 0026 731F      		adc r23,r19
 1572 0028 90E0      		ldi r25,lo8(0)
 1573               	.LVL184:
 1574 002a 00C0      		rjmp .L175
 1575               	.LVL185:
 1576               	.L156:
 1577               	.LSM223:
 1578 002c 6115      		cp r22,__zero_reg__
 1579 002e 7105      		cpc r23,__zero_reg__
 1580 0030 01F0      		breq .L158
 1581               	.LVL186:
 1582 0032 7B01      		movw r14,r22
 1583 0034 00C0      		rjmp .L159
 1584               	.L158:
 1585               	.LBB392:
 1586               	.LBB393:
 1587               	.LSM224:
 1588 0036 8091 E800 		lds r24,232
 1589 003a 8E77      		andi r24,lo8(126)
 1590 003c 8093 E800 		sts 232,r24
 1591 0040 EE24      		clr r14
 1592 0042 FF24      		clr r15
 1593               	.LVL187:
 1594 0044 00C0      		rjmp .L159
 1595               	.LVL188:
 1596               	.L169:
 1597               	.LBE393:
 1598               	.LBE392:
 1599               	.LBB394:
 1600               	.LSM225:
 1601 0046 8091 0000 		lds r24,USB_DeviceState
 1602               	.LVL189:
 1603               	.LSM226:
 1604 004a 8823      		tst r24
 1605 004c 01F4      		brne .+2
 1606 004e 00C0      		rjmp .L160
 1607               	.LSM227:
 1608 0050 8530      		cpi r24,lo8(5)
 1609 0052 01F4      		brne .+2
 1610 0054 00C0      		rjmp .L161
 1611               	.LBB395:
 1612               	.LBB396:
 1613               	.LSM228:
 1614 0056 8091 E800 		lds r24,232
 1615               	.LVL190:
 1616               	.LBE396:
 1617               	.LBE395:
 1618               	.LSM229:
 1619 005a 83FF      		sbrs r24,3
 1620 005c 00C0      		rjmp .L162
 1621 005e 81E0      		ldi r24,lo8(1)
 1622 0060 00C0      		rjmp .L163
 1623               	.L162:
 1624               	.LBB397:
 1625               	.LBB398:
 1626               	.LSM230:
 1627 0062 8091 E800 		lds r24,232
 1628               	.LBE398:
 1629               	.LBE397:
 1630               	.LSM231:
 1631 0066 82FD      		sbrc r24,2
 1632 0068 00C0      		rjmp .L173
 1633               	.LBB399:
 1634               	.LBB400:
 1635               	.LSM232:
 1636 006a 8091 E800 		lds r24,232
 1637               	.LBE400:
 1638               	.LBE399:
 1639               	.LSM233:
 1640 006e 80FF      		sbrs r24,0
 1641 0070 00C0      		rjmp .L175
 1642               	.LBB401:
 1643               	.LBB402:
 1644               	.LBB403:
 1645               	.LSM234:
 1646 0072 8091 F300 		lds r24,243
 1647 0076 9091 F200 		lds r25,242
 1648               	.LVL191:
 1649 007a D82E      		mov r13,r24
 1650 007c CC24      		clr r12
 1651 007e C92F      		mov r28,r25
 1652               	.LVL192:
 1653 0080 D0E0      		ldi r29,lo8(0)
 1654 0082 CC29      		or r28,r12
 1655 0084 DD29      		or r29,r13
 1656               	.LVL193:
 1657 0086 00C0      		rjmp .L165
 1658               	.L167:
 1659               	.LBE403:
 1660               	.LBE402:
 1661               	.LSM235:
 1662 0088 8B01      		movw r16,r22
 1663 008a 0150      		subi r16,lo8(-(-1))
 1664 008c 1040      		sbci r17,hi8(-(-1))
 1665               	.LVL194:
 1666 008e CB01      		movw r24,r22
 1667 0090 0E94 0000 		call __eerd_byte_m32u4
 1668               	.LVL195:
 1669               	.LBB404:
 1670               	.LBB405:
 1671               	.LSM236:
 1672 0094 8093 F100 		sts 241,r24
 1673               	.LBE405:
 1674               	.LBE404:
 1675               	.LSM237:
 1676 0098 0894      		sec
 1677 009a E108      		sbc r14,__zero_reg__
 1678 009c F108      		sbc r15,__zero_reg__
 1679               	.LSM238:
 1680 009e 2196      		adiw r28,1
 1681 00a0 B801      		movw r22,r16
 1682               	.LVL196:
 1683               	.L165:
 1684               	.LSM239:
 1685 00a2 E114      		cp r14,__zero_reg__
 1686 00a4 F104      		cpc r15,__zero_reg__
 1687 00a6 01F0      		breq .L166
 1688 00a8 C830      		cpi r28,8
 1689 00aa D105      		cpc r29,__zero_reg__
 1690 00ac 00F0      		brlo .L167
 1691               	.L166:
 1692               	.LSM240:
 1693 00ae 90E0      		ldi r25,lo8(0)
 1694               	.LVL197:
 1695 00b0 2897      		sbiw r28,8
 1696 00b2 01F4      		brne .L168
 1697 00b4 91E0      		ldi r25,lo8(1)
 1698               	.L168:
 1699               	.LBB406:
 1700               	.LBB407:
 1701               	.LSM241:
 1702 00b6 8091 E800 		lds r24,232
 1703 00ba 8E77      		andi r24,lo8(126)
 1704 00bc 8093 E800 		sts 232,r24
 1705               	.LVL198:
 1706               	.L175:
 1707               	.LBE407:
 1708               	.LBE406:
 1709               	.LBE401:
 1710               	.LBE394:
 1711               	.LSM242:
 1712 00c0 E114      		cp r14,__zero_reg__
 1713 00c2 F104      		cpc r15,__zero_reg__
 1714 00c4 01F0      		breq .+2
 1715 00c6 00C0      		rjmp .L169
 1716 00c8 9923      		tst r25
 1717 00ca 01F0      		breq .+2
 1718 00cc 00C0      		rjmp .L169
 1719 00ce 00C0      		rjmp .L173
 1720               	.LVL199:
 1721               	.L170:
 1722               	.LBB408:
 1723               	.LSM243:
 1724 00d0 8091 0000 		lds r24,USB_DeviceState
 1725               	.LVL200:
 1726               	.LSM244:
 1727 00d4 8823      		tst r24
 1728 00d6 01F0      		breq .L160
 1729               	.LSM245:
 1730 00d8 8530      		cpi r24,lo8(5)
 1731 00da 01F0      		breq .L161
 1732               	.LVL201:
 1733               	.L173:
 1734               	.LBE408:
 1735               	.LBB409:
 1736               	.LBB410:
 1737               	.LSM246:
 1738 00dc 8091 E800 		lds r24,232
 1739               	.LVL202:
 1740               	.LBE410:
 1741               	.LBE409:
 1742               	.LSM247:
 1743 00e0 82FF      		sbrs r24,2
 1744 00e2 00C0      		rjmp .L170
 1745 00e4 80E0      		ldi r24,lo8(0)
 1746 00e6 00C0      		rjmp .L163
 1747               	.LVL203:
 1748               	.L160:
 1749 00e8 82E0      		ldi r24,lo8(2)
 1750               	.LVL204:
 1751 00ea 00C0      		rjmp .L163
 1752               	.LVL205:
 1753               	.L161:
 1754 00ec 83E0      		ldi r24,lo8(3)
 1755               	.LVL206:
 1756               	.L163:
 1757               	/* epilogue start */
 1758               	.LSM248:
 1759 00ee DF91      		pop r29
 1760               	.LVL207:
 1761 00f0 CF91      		pop r28
 1762               	.LVL208:
 1763 00f2 1F91      		pop r17
 1764 00f4 0F91      		pop r16
 1765 00f6 FF90      		pop r15
 1766 00f8 EF90      		pop r14
 1767               	.LVL209:
 1768 00fa DF90      		pop r13
 1769 00fc CF90      		pop r12
 1770 00fe 0895      		ret
 1771               	.LFE89:
 1773               		.section	.text.Endpoint_Write_Control_EStream_LE,"ax",@progbits
 1774               	.global	Endpoint_Write_Control_EStream_LE
 1776               	Endpoint_Write_Control_EStream_LE:
 1777               	.LFB86:
 1778               	.LSM249:
 1779               	.LVL210:
 1780 0000 CF92      		push r12
 1781 0002 DF92      		push r13
 1782 0004 EF92      		push r14
 1783 0006 FF92      		push r15
 1784 0008 0F93      		push r16
 1785 000a 1F93      		push r17
 1786 000c CF93      		push r28
 1787 000e DF93      		push r29
 1788               	/* prologue: function */
 1789               	/* frame size = 0 */
 1790 0010 9C01      		movw r18,r24
 1791               	.LVL211:
 1792               	.LSM250:
 1793 0012 E090 0000 		lds r14,USB_ControlRequest+6
 1794 0016 F090 0000 		lds r15,(USB_ControlRequest+6)+1
 1795               	.LVL212:
 1796 001a E616      		cp r14,r22
 1797 001c F706      		cpc r15,r23
 1798 001e 00F4      		brsh .L177
 1799               	.L180:
 1800               	.LSM251:
 1801 0020 90E0      		ldi r25,lo8(0)
 1802               	.LVL213:
 1803 0022 00C0      		rjmp .L196
 1804               	.LVL214:
 1805               	.L177:
 1806               	.LSM252:
 1807 0024 6115      		cp r22,__zero_reg__
 1808 0026 7105      		cpc r23,__zero_reg__
 1809 0028 01F0      		breq .L179
 1810               	.LVL215:
 1811 002a 7B01      		movw r14,r22
 1812 002c 00C0      		rjmp .L180
 1813               	.L179:
 1814               	.LBB411:
 1815               	.LBB412:
 1816               	.LSM253:
 1817 002e 8091 E800 		lds r24,232
 1818 0032 8E77      		andi r24,lo8(126)
 1819 0034 8093 E800 		sts 232,r24
 1820 0038 EE24      		clr r14
 1821 003a FF24      		clr r15
 1822               	.LVL216:
 1823 003c 00C0      		rjmp .L180
 1824               	.LVL217:
 1825               	.L190:
 1826               	.LBE412:
 1827               	.LBE411:
 1828               	.LBB413:
 1829               	.LSM254:
 1830 003e 8091 0000 		lds r24,USB_DeviceState
 1831               	.LVL218:
 1832               	.LSM255:
 1833 0042 8823      		tst r24
 1834 0044 01F4      		brne .+2
 1835 0046 00C0      		rjmp .L181
 1836               	.LSM256:
 1837 0048 8530      		cpi r24,lo8(5)
 1838 004a 01F4      		brne .+2
 1839 004c 00C0      		rjmp .L182
 1840               	.LBB414:
 1841               	.LBB415:
 1842               	.LSM257:
 1843 004e 8091 E800 		lds r24,232
 1844               	.LVL219:
 1845               	.LBE415:
 1846               	.LBE414:
 1847               	.LSM258:
 1848 0052 83FF      		sbrs r24,3
 1849 0054 00C0      		rjmp .L183
 1850 0056 81E0      		ldi r24,lo8(1)
 1851 0058 00C0      		rjmp .L184
 1852               	.L183:
 1853               	.LBB416:
 1854               	.LBB417:
 1855               	.LSM259:
 1856 005a 8091 E800 		lds r24,232
 1857               	.LBE417:
 1858               	.LBE416:
 1859               	.LSM260:
 1860 005e 82FD      		sbrc r24,2
 1861 0060 00C0      		rjmp .L194
 1862               	.LBB418:
 1863               	.LBB419:
 1864               	.LSM261:
 1865 0062 8091 E800 		lds r24,232
 1866               	.LBE419:
 1867               	.LBE418:
 1868               	.LSM262:
 1869 0066 80FF      		sbrs r24,0
 1870 0068 00C0      		rjmp .L196
 1871               	.LBB420:
 1872               	.LBB421:
 1873               	.LBB422:
 1874               	.LSM263:
 1875 006a 8091 F300 		lds r24,243
 1876 006e 9091 F200 		lds r25,242
 1877               	.LVL220:
 1878 0072 D82E      		mov r13,r24
 1879 0074 CC24      		clr r12
 1880 0076 C92F      		mov r28,r25
 1881               	.LVL221:
 1882 0078 D0E0      		ldi r29,lo8(0)
 1883 007a CC29      		or r28,r12
 1884 007c DD29      		or r29,r13
 1885               	.LVL222:
 1886 007e 00C0      		rjmp .L186
 1887               	.L188:
 1888               	.LBE422:
 1889               	.LBE421:
 1890               	.LSM264:
 1891 0080 8901      		movw r16,r18
 1892 0082 0F5F      		subi r16,lo8(-(1))
 1893 0084 1F4F      		sbci r17,hi8(-(1))
 1894               	.LVL223:
 1895 0086 C901      		movw r24,r18
 1896 0088 0E94 0000 		call __eerd_byte_m32u4
 1897               	.LBB423:
 1898               	.LBB424:
 1899               	.LSM265:
 1900 008c 8093 F100 		sts 241,r24
 1901               	.LBE424:
 1902               	.LBE423:
 1903               	.LSM266:
 1904 0090 0894      		sec
 1905 0092 E108      		sbc r14,__zero_reg__
 1906 0094 F108      		sbc r15,__zero_reg__
 1907               	.LSM267:
 1908 0096 2196      		adiw r28,1
 1909 0098 9801      		movw r18,r16
 1910               	.LVL224:
 1911               	.L186:
 1912               	.LSM268:
 1913 009a E114      		cp r14,__zero_reg__
 1914 009c F104      		cpc r15,__zero_reg__
 1915 009e 01F0      		breq .L187
 1916 00a0 C830      		cpi r28,8
 1917 00a2 D105      		cpc r29,__zero_reg__
 1918 00a4 00F0      		brlo .L188
 1919               	.L187:
 1920               	.LSM269:
 1921 00a6 90E0      		ldi r25,lo8(0)
 1922               	.LVL225:
 1923 00a8 2897      		sbiw r28,8
 1924 00aa 01F4      		brne .L189
 1925 00ac 91E0      		ldi r25,lo8(1)
 1926               	.L189:
 1927               	.LBB425:
 1928               	.LBB426:
 1929               	.LSM270:
 1930 00ae 8091 E800 		lds r24,232
 1931 00b2 8E77      		andi r24,lo8(126)
 1932 00b4 8093 E800 		sts 232,r24
 1933               	.L196:
 1934               	.LBE426:
 1935               	.LBE425:
 1936               	.LBE420:
 1937               	.LBE413:
 1938               	.LSM271:
 1939 00b8 E114      		cp r14,__zero_reg__
 1940 00ba F104      		cpc r15,__zero_reg__
 1941 00bc 01F0      		breq .+2
 1942 00be 00C0      		rjmp .L190
 1943 00c0 9923      		tst r25
 1944 00c2 01F0      		breq .+2
 1945 00c4 00C0      		rjmp .L190
 1946 00c6 00C0      		rjmp .L194
 1947               	.L191:
 1948               	.LBB427:
 1949               	.LSM272:
 1950 00c8 8091 0000 		lds r24,USB_DeviceState
 1951               	.LVL226:
 1952               	.LSM273:
 1953 00cc 8823      		tst r24
 1954 00ce 01F0      		breq .L181
 1955               	.LSM274:
 1956 00d0 8530      		cpi r24,lo8(5)
 1957 00d2 01F0      		breq .L182
 1958               	.L194:
 1959               	.LBE427:
 1960               	.LBB428:
 1961               	.LBB429:
 1962               	.LSM275:
 1963 00d4 8091 E800 		lds r24,232
 1964               	.LVL227:
 1965               	.LBE429:
 1966               	.LBE428:
 1967               	.LSM276:
 1968 00d8 82FF      		sbrs r24,2
 1969 00da 00C0      		rjmp .L191
 1970 00dc 80E0      		ldi r24,lo8(0)
 1971 00de 00C0      		rjmp .L184
 1972               	.LVL228:
 1973               	.L181:
 1974 00e0 82E0      		ldi r24,lo8(2)
 1975               	.LVL229:
 1976 00e2 00C0      		rjmp .L184
 1977               	.LVL230:
 1978               	.L182:
 1979 00e4 83E0      		ldi r24,lo8(3)
 1980               	.LVL231:
 1981               	.L184:
 1982               	/* epilogue start */
 1983               	.LSM277:
 1984 00e6 DF91      		pop r29
 1985               	.LVL232:
 1986 00e8 CF91      		pop r28
 1987               	.LVL233:
 1988 00ea 1F91      		pop r17
 1989 00ec 0F91      		pop r16
 1990 00ee FF90      		pop r15
 1991 00f0 EF90      		pop r14
 1992               	.LVL234:
 1993 00f2 DF90      		pop r13
 1994 00f4 CF90      		pop r12
 1995 00f6 0895      		ret
 1996               	.LFE86:
 1998               		.section	.text.Endpoint_Read_EStream_BE,"ax",@progbits
 1999               	.global	Endpoint_Read_EStream_BE
 2001               	Endpoint_Read_EStream_BE:
 2002               	.LFB83:
 2003               	.LSM278:
 2004               	.LVL235:
 2005 0000 BF92      		push r11
 2006 0002 CF92      		push r12
 2007 0004 DF92      		push r13
 2008 0006 EF92      		push r14
 2009 0008 FF92      		push r15
 2010 000a 0F93      		push r16
 2011 000c 1F93      		push r17
 2012 000e CF93      		push r28
 2013 0010 DF93      		push r29
 2014               	/* prologue: function */
 2015               	/* frame size = 0 */
 2016 0012 7C01      		movw r14,r24
 2017 0014 EB01      		movw r28,r22
 2018 0016 6A01      		movw r12,r20
 2019               	.LSM279:
 2020 0018 0E94 0000 		call Endpoint_WaitUntilReady
 2021               	.LVL236:
 2022 001c B82E      		mov r11,r24
 2023               	.LVL237:
 2024 001e 8823      		tst r24
 2025 0020 01F4      		brne .L198
 2026               	.LVL238:
 2027               	.LSM280:
 2028 0022 2197      		sbiw r28,1
 2029 0024 EC0E      		add r14,r28
 2030 0026 FD1E      		adc r15,r29
 2031               	.LVL239:
 2032 0028 2196      		adiw r28,1
 2033 002a 00C0      		rjmp .L205
 2034               	.LVL240:
 2035               	.L203:
 2036               	.LBB430:
 2037               	.LBB431:
 2038               	.LSM281:
 2039 002c 8091 E800 		lds r24,232
 2040               	.LBE431:
 2041               	.LBE430:
 2042               	.LSM282:
 2043 0030 85FD      		sbrc r24,5
 2044 0032 00C0      		rjmp .L200
 2045               	.LBB432:
 2046               	.LBB433:
 2047               	.LSM283:
 2048 0034 8091 E800 		lds r24,232
 2049 0038 8B77      		andi r24,lo8(123)
 2050 003a 8093 E800 		sts 232,r24
 2051               	.LBE433:
 2052               	.LBE432:
 2053               	.LSM284:
 2054 003e C114      		cp r12,__zero_reg__
 2055 0040 D104      		cpc r13,__zero_reg__
 2056 0042 01F0      		breq .L201
 2057 0044 F601      		movw r30,r12
 2058 0046 0995      		icall
 2059 0048 8130      		cpi r24,lo8(1)
 2060 004a 01F4      		brne .L201
 2061 004c 85E0      		ldi r24,lo8(5)
 2062               	.LVL241:
 2063 004e 00C0      		rjmp .L202
 2064               	.LVL242:
 2065               	.L201:
 2066               	.LSM285:
 2067 0050 0E94 0000 		call Endpoint_WaitUntilReady
 2068 0054 8823      		tst r24
 2069 0056 01F0      		breq .L205
 2070               	.LVL243:
 2071 0058 00C0      		rjmp .L202
 2072               	.LVL244:
 2073               	.L200:
 2074               	.LSM286:
 2075 005a 8701      		movw r16,r14
 2076 005c 0150      		subi r16,lo8(-(-1))
 2077 005e 1040      		sbci r17,hi8(-(-1))
 2078               	.LVL245:
 2079               	.LBB434:
 2080               	.LBB435:
 2081               	.LSM287:
 2082 0060 6091 F100 		lds r22,241
 2083               	.LBE435:
 2084               	.LBE434:
 2085               	.LSM288:
 2086 0064 C701      		movw r24,r14
 2087 0066 0E94 0000 		call __eeupd_byte_m32u4
 2088               	.LSM289:
 2089 006a 2197      		sbiw r28,1
 2090 006c 7801      		movw r14,r16
 2091               	.LVL246:
 2092               	.L205:
 2093               	.LSM290:
 2094 006e 2097      		sbiw r28,0
 2095 0070 01F4      		brne .L203
 2096               	.LVL247:
 2097               	.L198:
 2098 0072 8B2D      		mov r24,r11
 2099               	.L202:
 2100               	.LVL248:
 2101               	/* epilogue start */
 2102               	.LSM291:
 2103 0074 DF91      		pop r29
 2104 0076 CF91      		pop r28
 2105               	.LVL249:
 2106 0078 1F91      		pop r17
 2107 007a 0F91      		pop r16
 2108 007c FF90      		pop r15
 2109 007e EF90      		pop r14
 2110               	.LVL250:
 2111 0080 DF90      		pop r13
 2112 0082 CF90      		pop r12
 2113               	.LVL251:
 2114 0084 BF90      		pop r11
 2115               	.LVL252:
 2116 0086 0895      		ret
 2117               	.LFE83:
 2119               		.section	.text.Endpoint_Read_Stream_BE,"ax",@progbits
 2120               	.global	Endpoint_Read_Stream_BE
 2122               	Endpoint_Read_Stream_BE:
 2123               	.LFB82:
 2124               	.LSM292:
 2125               	.LVL253:
 2126 0000 DF92      		push r13
 2127 0002 EF92      		push r14
 2128 0004 FF92      		push r15
 2129 0006 0F93      		push r16
 2130 0008 1F93      		push r17
 2131 000a CF93      		push r28
 2132 000c DF93      		push r29
 2133               	/* prologue: function */
 2134               	/* frame size = 0 */
 2135 000e 8C01      		movw r16,r24
 2136 0010 EB01      		movw r28,r22
 2137 0012 7A01      		movw r14,r20
 2138               	.LSM293:
 2139 0014 0E94 0000 		call Endpoint_WaitUntilReady
 2140               	.LVL254:
 2141 0018 D82E      		mov r13,r24
 2142               	.LVL255:
 2143 001a 8823      		tst r24
 2144 001c 01F4      		brne .L207
 2145               	.LVL256:
 2146               	.LSM294:
 2147 001e 2197      		sbiw r28,1
 2148 0020 0C0F      		add r16,r28
 2149 0022 1D1F      		adc r17,r29
 2150               	.LVL257:
 2151 0024 2196      		adiw r28,1
 2152 0026 00C0      		rjmp .L214
 2153               	.L212:
 2154               	.LBB436:
 2155               	.LBB437:
 2156               	.LSM295:
 2157 0028 8091 E800 		lds r24,232
 2158               	.LVL258:
 2159               	.LBE437:
 2160               	.LBE436:
 2161               	.LSM296:
 2162 002c 85FD      		sbrc r24,5
 2163 002e 00C0      		rjmp .L209
 2164               	.LBB438:
 2165               	.LBB439:
 2166               	.LSM297:
 2167 0030 8091 E800 		lds r24,232
 2168 0034 8B77      		andi r24,lo8(123)
 2169 0036 8093 E800 		sts 232,r24
 2170               	.LBE439:
 2171               	.LBE438:
 2172               	.LSM298:
 2173 003a E114      		cp r14,__zero_reg__
 2174 003c F104      		cpc r15,__zero_reg__
 2175 003e 01F0      		breq .L210
 2176 0040 F701      		movw r30,r14
 2177 0042 0995      		icall
 2178 0044 8130      		cpi r24,lo8(1)
 2179 0046 01F4      		brne .L210
 2180 0048 85E0      		ldi r24,lo8(5)
 2181               	.LVL259:
 2182 004a 00C0      		rjmp .L211
 2183               	.LVL260:
 2184               	.L210:
 2185               	.LSM299:
 2186 004c 0E94 0000 		call Endpoint_WaitUntilReady
 2187 0050 8823      		tst r24
 2188 0052 01F0      		breq .L214
 2189               	.LVL261:
 2190 0054 00C0      		rjmp .L211
 2191               	.LVL262:
 2192               	.L209:
 2193               	.LBB440:
 2194               	.LBB441:
 2195               	.LSM300:
 2196 0056 8091 F100 		lds r24,241
 2197               	.LBE441:
 2198               	.LBE440:
 2199               	.LSM301:
 2200 005a F801      		movw r30,r16
 2201 005c 8083      		st Z,r24
 2202 005e 0150      		subi r16,lo8(-(-1))
 2203 0060 1040      		sbci r17,hi8(-(-1))
 2204               	.LSM302:
 2205 0062 2197      		sbiw r28,1
 2206               	.LVL263:
 2207               	.L214:
 2208               	.LSM303:
 2209 0064 2097      		sbiw r28,0
 2210 0066 01F4      		brne .L212
 2211               	.LVL264:
 2212               	.L207:
 2213 0068 8D2D      		mov r24,r13
 2214               	.L211:
 2215               	.LVL265:
 2216               	/* epilogue start */
 2217               	.LSM304:
 2218 006a DF91      		pop r29
 2219 006c CF91      		pop r28
 2220               	.LVL266:
 2221 006e 1F91      		pop r17
 2222 0070 0F91      		pop r16
 2223               	.LVL267:
 2224 0072 FF90      		pop r15
 2225 0074 EF90      		pop r14
 2226               	.LVL268:
 2227 0076 DF90      		pop r13
 2228               	.LVL269:
 2229 0078 0895      		ret
 2230               	.LFE82:
 2232               		.section	.text.Endpoint_Read_EStream_LE,"ax",@progbits
 2233               	.global	Endpoint_Read_EStream_LE
 2235               	Endpoint_Read_EStream_LE:
 2236               	.LFB81:
 2237               	.LSM305:
 2238               	.LVL270:
 2239 0000 BF92      		push r11
 2240 0002 CF92      		push r12
 2241 0004 DF92      		push r13
 2242 0006 EF92      		push r14
 2243 0008 FF92      		push r15
 2244 000a 0F93      		push r16
 2245 000c 1F93      		push r17
 2246 000e CF93      		push r28
 2247 0010 DF93      		push r29
 2248               	/* prologue: function */
 2249               	/* frame size = 0 */
 2250 0012 8C01      		movw r16,r24
 2251               	.LVL271:
 2252 0014 7B01      		movw r14,r22
 2253 0016 6A01      		movw r12,r20
 2254               	.LSM306:
 2255 0018 0E94 0000 		call Endpoint_WaitUntilReady
 2256               	.LVL272:
 2257 001c B82E      		mov r11,r24
 2258               	.LVL273:
 2259 001e 8823      		tst r24
 2260 0020 01F4      		brne .L216
 2261               	.LVL274:
 2262               	.LSM307:
 2263 0022 E801      		movw r28,r16
 2264               	.LVL275:
 2265 0024 00C0      		rjmp .L223
 2266               	.LVL276:
 2267               	.L221:
 2268               	.LBB442:
 2269               	.LBB443:
 2270               	.LSM308:
 2271 0026 8091 E800 		lds r24,232
 2272               	.LVL277:
 2273               	.LBE443:
 2274               	.LBE442:
 2275               	.LSM309:
 2276 002a 85FD      		sbrc r24,5
 2277 002c 00C0      		rjmp .L218
 2278               	.LBB444:
 2279               	.LBB445:
 2280               	.LSM310:
 2281 002e 8091 E800 		lds r24,232
 2282 0032 8B77      		andi r24,lo8(123)
 2283 0034 8093 E800 		sts 232,r24
 2284               	.LBE445:
 2285               	.LBE444:
 2286               	.LSM311:
 2287 0038 C114      		cp r12,__zero_reg__
 2288 003a D104      		cpc r13,__zero_reg__
 2289 003c 01F0      		breq .L219
 2290 003e F601      		movw r30,r12
 2291 0040 0995      		icall
 2292 0042 8130      		cpi r24,lo8(1)
 2293 0044 01F4      		brne .L219
 2294 0046 85E0      		ldi r24,lo8(5)
 2295               	.LVL278:
 2296 0048 00C0      		rjmp .L220
 2297               	.LVL279:
 2298               	.L219:
 2299               	.LSM312:
 2300 004a 0E94 0000 		call Endpoint_WaitUntilReady
 2301 004e 8823      		tst r24
 2302 0050 01F0      		breq .L223
 2303               	.LVL280:
 2304 0052 00C0      		rjmp .L220
 2305               	.LVL281:
 2306               	.L218:
 2307               	.LSM313:
 2308 0054 8E01      		movw r16,r28
 2309 0056 0F5F      		subi r16,lo8(-(1))
 2310 0058 1F4F      		sbci r17,hi8(-(1))
 2311               	.LVL282:
 2312               	.LBB446:
 2313               	.LBB447:
 2314               	.LSM314:
 2315 005a 6091 F100 		lds r22,241
 2316               	.LBE447:
 2317               	.LBE446:
 2318               	.LSM315:
 2319 005e CE01      		movw r24,r28
 2320 0060 0E94 0000 		call __eeupd_byte_m32u4
 2321               	.LSM316:
 2322 0064 0894      		sec
 2323 0066 E108      		sbc r14,__zero_reg__
 2324 0068 F108      		sbc r15,__zero_reg__
 2325 006a E801      		movw r28,r16
 2326               	.LVL283:
 2327               	.L223:
 2328               	.LSM317:
 2329 006c E114      		cp r14,__zero_reg__
 2330 006e F104      		cpc r15,__zero_reg__
 2331 0070 01F4      		brne .L221
 2332               	.LVL284:
 2333               	.L216:
 2334 0072 8B2D      		mov r24,r11
 2335               	.L220:
 2336               	.LVL285:
 2337               	/* epilogue start */
 2338               	.LSM318:
 2339 0074 DF91      		pop r29
 2340 0076 CF91      		pop r28
 2341               	.LVL286:
 2342 0078 1F91      		pop r17
 2343 007a 0F91      		pop r16
 2344               	.LVL287:
 2345 007c FF90      		pop r15
 2346 007e EF90      		pop r14
 2347               	.LVL288:
 2348 0080 DF90      		pop r13
 2349 0082 CF90      		pop r12
 2350               	.LVL289:
 2351 0084 BF90      		pop r11
 2352               	.LVL290:
 2353 0086 0895      		ret
 2354               	.LFE81:
 2356               		.section	.text.Endpoint_Read_Stream_LE,"ax",@progbits
 2357               	.global	Endpoint_Read_Stream_LE
 2359               	Endpoint_Read_Stream_LE:
 2360               	.LFB80:
 2361               	.LSM319:
 2362               	.LVL291:
 2363 0000 DF92      		push r13
 2364 0002 EF92      		push r14
 2365 0004 FF92      		push r15
 2366 0006 0F93      		push r16
 2367 0008 1F93      		push r17
 2368 000a CF93      		push r28
 2369 000c DF93      		push r29
 2370               	/* prologue: function */
 2371               	/* frame size = 0 */
 2372 000e 182F      		mov r17,r24
 2373 0010 092F      		mov r16,r25
 2374               	.LVL292:
 2375 0012 EB01      		movw r28,r22
 2376 0014 7A01      		movw r14,r20
 2377               	.LSM320:
 2378 0016 0E94 0000 		call Endpoint_WaitUntilReady
 2379               	.LVL293:
 2380 001a D82E      		mov r13,r24
 2381               	.LVL294:
 2382 001c 8823      		tst r24
 2383 001e 01F4      		brne .L225
 2384               	.LVL295:
 2385               	.LSM321:
 2386 0020 812F      		mov r24,r17
 2387               	.LVL296:
 2388 0022 902F      		mov r25,r16
 2389               	.LVL297:
 2390 0024 9C01      		movw r18,r24
 2391               	.LVL298:
 2392 0026 8901      		movw r16,r18
 2393               	.LVL299:
 2394 0028 00C0      		rjmp .L232
 2395               	.LVL300:
 2396               	.L230:
 2397               	.LBB448:
 2398               	.LBB449:
 2399               	.LSM322:
 2400 002a 8091 E800 		lds r24,232
 2401               	.LBE449:
 2402               	.LBE448:
 2403               	.LSM323:
 2404 002e 85FD      		sbrc r24,5
 2405 0030 00C0      		rjmp .L227
 2406               	.LBB450:
 2407               	.LBB451:
 2408               	.LSM324:
 2409 0032 8091 E800 		lds r24,232
 2410 0036 8B77      		andi r24,lo8(123)
 2411 0038 8093 E800 		sts 232,r24
 2412               	.LBE451:
 2413               	.LBE450:
 2414               	.LSM325:
 2415 003c E114      		cp r14,__zero_reg__
 2416 003e F104      		cpc r15,__zero_reg__
 2417 0040 01F0      		breq .L228
 2418 0042 F701      		movw r30,r14
 2419 0044 0995      		icall
 2420               	.LVL301:
 2421 0046 8130      		cpi r24,lo8(1)
 2422 0048 01F4      		brne .L228
 2423 004a 85E0      		ldi r24,lo8(5)
 2424               	.LVL302:
 2425 004c 00C0      		rjmp .L229
 2426               	.LVL303:
 2427               	.L228:
 2428               	.LSM326:
 2429 004e 0E94 0000 		call Endpoint_WaitUntilReady
 2430               	.LVL304:
 2431 0052 8823      		tst r24
 2432 0054 01F0      		breq .L232
 2433               	.LVL305:
 2434 0056 00C0      		rjmp .L229
 2435               	.LVL306:
 2436               	.L227:
 2437               	.LBB452:
 2438               	.LBB453:
 2439               	.LSM327:
 2440 0058 8091 F100 		lds r24,241
 2441               	.LBE453:
 2442               	.LBE452:
 2443               	.LSM328:
 2444 005c F801      		movw r30,r16
 2445 005e 8193      		st Z+,r24
 2446 0060 8F01      		movw r16,r30
 2447               	.LSM329:
 2448 0062 2197      		sbiw r28,1
 2449               	.LVL307:
 2450               	.L232:
 2451               	.LSM330:
 2452 0064 2097      		sbiw r28,0
 2453 0066 01F4      		brne .L230
 2454               	.LVL308:
 2455               	.L225:
 2456 0068 8D2D      		mov r24,r13
 2457               	.L229:
 2458               	.LVL309:
 2459               	/* epilogue start */
 2460               	.LSM331:
 2461 006a DF91      		pop r29
 2462 006c CF91      		pop r28
 2463               	.LVL310:
 2464 006e 1F91      		pop r17
 2465               	.LVL311:
 2466 0070 0F91      		pop r16
 2467               	.LVL312:
 2468 0072 FF90      		pop r15
 2469 0074 EF90      		pop r14
 2470               	.LVL313:
 2471 0076 DF90      		pop r13
 2472               	.LVL314:
 2473 0078 0895      		ret
 2474               	.LFE80:
 2476               		.section	.text.Endpoint_Write_PStream_BE,"ax",@progbits
 2477               	.global	Endpoint_Write_PStream_BE
 2479               	Endpoint_Write_PStream_BE:
 2480               	.LFB79:
 2481               	.LSM332:
 2482               	.LVL315:
 2483 0000 DF92      		push r13
 2484 0002 EF92      		push r14
 2485 0004 FF92      		push r15
 2486 0006 0F93      		push r16
 2487 0008 1F93      		push r17
 2488 000a CF93      		push r28
 2489 000c DF93      		push r29
 2490               	/* prologue: function */
 2491               	/* frame size = 0 */
 2492 000e 8C01      		movw r16,r24
 2493 0010 EB01      		movw r28,r22
 2494 0012 7A01      		movw r14,r20
 2495               	.LSM333:
 2496 0014 0E94 0000 		call Endpoint_WaitUntilReady
 2497               	.LVL316:
 2498 0018 D82E      		mov r13,r24
 2499               	.LVL317:
 2500 001a 8823      		tst r24
 2501 001c 01F4      		brne .L234
 2502               	.LVL318:
 2503               	.LSM334:
 2504 001e 2197      		sbiw r28,1
 2505 0020 0C0F      		add r16,r28
 2506 0022 1D1F      		adc r17,r29
 2507               	.LVL319:
 2508 0024 2196      		adiw r28,1
 2509 0026 00C0      		rjmp .L241
 2510               	.LVL320:
 2511               	.L239:
 2512               	.LBB454:
 2513               	.LBB455:
 2514               	.LSM335:
 2515 0028 8091 E800 		lds r24,232
 2516               	.LBE455:
 2517               	.LBE454:
 2518               	.LSM336:
 2519 002c 85FD      		sbrc r24,5
 2520 002e 00C0      		rjmp .L236
 2521               	.LBB456:
 2522               	.LBB457:
 2523               	.LSM337:
 2524 0030 8091 E800 		lds r24,232
 2525 0034 8E77      		andi r24,lo8(126)
 2526 0036 8093 E800 		sts 232,r24
 2527               	.LBE457:
 2528               	.LBE456:
 2529               	.LSM338:
 2530 003a E114      		cp r14,__zero_reg__
 2531 003c F104      		cpc r15,__zero_reg__
 2532 003e 01F0      		breq .L237
 2533 0040 F701      		movw r30,r14
 2534 0042 0995      		icall
 2535               	.LVL321:
 2536 0044 8130      		cpi r24,lo8(1)
 2537 0046 01F4      		brne .L237
 2538 0048 85E0      		ldi r24,lo8(5)
 2539               	.LVL322:
 2540 004a 00C0      		rjmp .L238
 2541               	.LVL323:
 2542               	.L237:
 2543               	.LSM339:
 2544 004c 0E94 0000 		call Endpoint_WaitUntilReady
 2545               	.LVL324:
 2546 0050 8823      		tst r24
 2547 0052 01F0      		breq .L241
 2548               	.LVL325:
 2549 0054 00C0      		rjmp .L238
 2550               	.LVL326:
 2551               	.L236:
 2552               	.LBB458:
 2553               	.LSM340:
 2554 0056 F801      		movw r30,r16
 2555               	.LVL327:
 2556 0058 0150      		subi r16,lo8(-(-1))
 2557 005a 1040      		sbci r17,hi8(-(-1))
 2558               	/* #APP */
 2559               	 ;  67 "../LUFA101122/LUFA/Drivers/USB/HighLevel/Template/Template_Endpoint_RW.c" 1
 2560 005c E491      		lpm r30, Z
 2561               		
 2562               	 ;  0 "" 2
 2563               	.LVL328:
 2564               	/* #NOAPP */
 2565               	.LBE458:
 2566               	.LBB459:
 2567               	.LBB460:
 2568               	.LSM341:
 2569 005e E093 F100 		sts 241,r30
 2570               	.LBE460:
 2571               	.LBE459:
 2572               	.LSM342:
 2573 0062 2197      		sbiw r28,1
 2574               	.LVL329:
 2575               	.L241:
 2576               	.LSM343:
 2577 0064 2097      		sbiw r28,0
 2578 0066 01F4      		brne .L239
 2579               	.LVL330:
 2580               	.L234:
 2581 0068 8D2D      		mov r24,r13
 2582               	.L238:
 2583               	.LVL331:
 2584               	/* epilogue start */
 2585               	.LSM344:
 2586 006a DF91      		pop r29
 2587 006c CF91      		pop r28
 2588               	.LVL332:
 2589 006e 1F91      		pop r17
 2590 0070 0F91      		pop r16
 2591               	.LVL333:
 2592 0072 FF90      		pop r15
 2593 0074 EF90      		pop r14
 2594               	.LVL334:
 2595 0076 DF90      		pop r13
 2596               	.LVL335:
 2597 0078 0895      		ret
 2598               	.LFE79:
 2600               		.section	.text.Endpoint_Write_EStream_BE,"ax",@progbits
 2601               	.global	Endpoint_Write_EStream_BE
 2603               	Endpoint_Write_EStream_BE:
 2604               	.LFB78:
 2605               	.LSM345:
 2606               	.LVL336:
 2607 0000 BF92      		push r11
 2608 0002 CF92      		push r12
 2609 0004 DF92      		push r13
 2610 0006 EF92      		push r14
 2611 0008 FF92      		push r15
 2612 000a 0F93      		push r16
 2613 000c 1F93      		push r17
 2614 000e CF93      		push r28
 2615 0010 DF93      		push r29
 2616               	/* prologue: function */
 2617               	/* frame size = 0 */
 2618 0012 7C01      		movw r14,r24
 2619 0014 EB01      		movw r28,r22
 2620 0016 6A01      		movw r12,r20
 2621               	.LSM346:
 2622 0018 0E94 0000 		call Endpoint_WaitUntilReady
 2623               	.LVL337:
 2624 001c B82E      		mov r11,r24
 2625               	.LVL338:
 2626 001e 8823      		tst r24
 2627 0020 01F4      		brne .L243
 2628               	.LVL339:
 2629               	.LSM347:
 2630 0022 2197      		sbiw r28,1
 2631 0024 EC0E      		add r14,r28
 2632 0026 FD1E      		adc r15,r29
 2633               	.LVL340:
 2634 0028 2196      		adiw r28,1
 2635 002a 00C0      		rjmp .L250
 2636               	.LVL341:
 2637               	.L248:
 2638               	.LBB461:
 2639               	.LBB462:
 2640               	.LSM348:
 2641 002c 8091 E800 		lds r24,232
 2642               	.LBE462:
 2643               	.LBE461:
 2644               	.LSM349:
 2645 0030 85FD      		sbrc r24,5
 2646 0032 00C0      		rjmp .L245
 2647               	.LBB463:
 2648               	.LBB464:
 2649               	.LSM350:
 2650 0034 8091 E800 		lds r24,232
 2651 0038 8E77      		andi r24,lo8(126)
 2652 003a 8093 E800 		sts 232,r24
 2653               	.LBE464:
 2654               	.LBE463:
 2655               	.LSM351:
 2656 003e C114      		cp r12,__zero_reg__
 2657 0040 D104      		cpc r13,__zero_reg__
 2658 0042 01F0      		breq .L246
 2659 0044 F601      		movw r30,r12
 2660 0046 0995      		icall
 2661 0048 8130      		cpi r24,lo8(1)
 2662 004a 01F4      		brne .L246
 2663 004c 85E0      		ldi r24,lo8(5)
 2664               	.LVL342:
 2665 004e 00C0      		rjmp .L247
 2666               	.LVL343:
 2667               	.L246:
 2668               	.LSM352:
 2669 0050 0E94 0000 		call Endpoint_WaitUntilReady
 2670 0054 8823      		tst r24
 2671 0056 01F0      		breq .L250
 2672               	.LVL344:
 2673 0058 00C0      		rjmp .L247
 2674               	.LVL345:
 2675               	.L245:
 2676               	.LSM353:
 2677 005a 8701      		movw r16,r14
 2678 005c 0150      		subi r16,lo8(-(-1))
 2679 005e 1040      		sbci r17,hi8(-(-1))
 2680               	.LVL346:
 2681 0060 C701      		movw r24,r14
 2682 0062 0E94 0000 		call __eerd_byte_m32u4
 2683               	.LBB465:
 2684               	.LBB466:
 2685               	.LSM354:
 2686 0066 8093 F100 		sts 241,r24
 2687               	.LBE466:
 2688               	.LBE465:
 2689               	.LSM355:
 2690 006a 2197      		sbiw r28,1
 2691 006c 7801      		movw r14,r16
 2692               	.LVL347:
 2693               	.L250:
 2694               	.LSM356:
 2695 006e 2097      		sbiw r28,0
 2696 0070 01F4      		brne .L248
 2697               	.LVL348:
 2698               	.L243:
 2699 0072 8B2D      		mov r24,r11
 2700               	.L247:
 2701               	.LVL349:
 2702               	/* epilogue start */
 2703               	.LSM357:
 2704 0074 DF91      		pop r29
 2705 0076 CF91      		pop r28
 2706               	.LVL350:
 2707 0078 1F91      		pop r17
 2708 007a 0F91      		pop r16
 2709 007c FF90      		pop r15
 2710 007e EF90      		pop r14
 2711               	.LVL351:
 2712 0080 DF90      		pop r13
 2713 0082 CF90      		pop r12
 2714               	.LVL352:
 2715 0084 BF90      		pop r11
 2716               	.LVL353:
 2717 0086 0895      		ret
 2718               	.LFE78:
 2720               		.section	.text.Endpoint_Write_Stream_BE,"ax",@progbits
 2721               	.global	Endpoint_Write_Stream_BE
 2723               	Endpoint_Write_Stream_BE:
 2724               	.LFB77:
 2725               	.LSM358:
 2726               	.LVL354:
 2727 0000 DF92      		push r13
 2728 0002 EF92      		push r14
 2729 0004 FF92      		push r15
 2730 0006 0F93      		push r16
 2731 0008 1F93      		push r17
 2732 000a CF93      		push r28
 2733 000c DF93      		push r29
 2734               	/* prologue: function */
 2735               	/* frame size = 0 */
 2736 000e 8C01      		movw r16,r24
 2737 0010 EB01      		movw r28,r22
 2738 0012 7A01      		movw r14,r20
 2739               	.LSM359:
 2740 0014 0E94 0000 		call Endpoint_WaitUntilReady
 2741               	.LVL355:
 2742 0018 D82E      		mov r13,r24
 2743               	.LVL356:
 2744 001a 8823      		tst r24
 2745 001c 01F4      		brne .L252
 2746               	.LVL357:
 2747               	.LSM360:
 2748 001e 2197      		sbiw r28,1
 2749 0020 0C0F      		add r16,r28
 2750 0022 1D1F      		adc r17,r29
 2751               	.LVL358:
 2752 0024 2196      		adiw r28,1
 2753 0026 00C0      		rjmp .L259
 2754               	.L257:
 2755               	.LBB467:
 2756               	.LBB468:
 2757               	.LSM361:
 2758 0028 8091 E800 		lds r24,232
 2759               	.LVL359:
 2760               	.LBE468:
 2761               	.LBE467:
 2762               	.LSM362:
 2763 002c 85FD      		sbrc r24,5
 2764 002e 00C0      		rjmp .L254
 2765               	.LBB469:
 2766               	.LBB470:
 2767               	.LSM363:
 2768 0030 8091 E800 		lds r24,232
 2769 0034 8E77      		andi r24,lo8(126)
 2770 0036 8093 E800 		sts 232,r24
 2771               	.LBE470:
 2772               	.LBE469:
 2773               	.LSM364:
 2774 003a E114      		cp r14,__zero_reg__
 2775 003c F104      		cpc r15,__zero_reg__
 2776 003e 01F0      		breq .L255
 2777 0040 F701      		movw r30,r14
 2778 0042 0995      		icall
 2779 0044 8130      		cpi r24,lo8(1)
 2780 0046 01F4      		brne .L255
 2781 0048 85E0      		ldi r24,lo8(5)
 2782               	.LVL360:
 2783 004a 00C0      		rjmp .L256
 2784               	.LVL361:
 2785               	.L255:
 2786               	.LSM365:
 2787 004c 0E94 0000 		call Endpoint_WaitUntilReady
 2788 0050 8823      		tst r24
 2789 0052 01F0      		breq .L259
 2790               	.LVL362:
 2791 0054 00C0      		rjmp .L256
 2792               	.LVL363:
 2793               	.L254:
 2794               	.LSM366:
 2795 0056 F801      		movw r30,r16
 2796 0058 8081      		ld r24,Z
 2797 005a 0150      		subi r16,lo8(-(-1))
 2798 005c 1040      		sbci r17,hi8(-(-1))
 2799               	.LBB471:
 2800               	.LBB472:
 2801               	.LSM367:
 2802 005e 8093 F100 		sts 241,r24
 2803               	.LBE472:
 2804               	.LBE471:
 2805               	.LSM368:
 2806 0062 2197      		sbiw r28,1
 2807               	.LVL364:
 2808               	.L259:
 2809               	.LSM369:
 2810 0064 2097      		sbiw r28,0
 2811 0066 01F4      		brne .L257
 2812               	.LVL365:
 2813               	.L252:
 2814 0068 8D2D      		mov r24,r13
 2815               	.L256:
 2816               	.LVL366:
 2817               	/* epilogue start */
 2818               	.LSM370:
 2819 006a DF91      		pop r29
 2820 006c CF91      		pop r28
 2821               	.LVL367:
 2822 006e 1F91      		pop r17
 2823 0070 0F91      		pop r16
 2824               	.LVL368:
 2825 0072 FF90      		pop r15
 2826 0074 EF90      		pop r14
 2827               	.LVL369:
 2828 0076 DF90      		pop r13
 2829               	.LVL370:
 2830 0078 0895      		ret
 2831               	.LFE77:
 2833               		.section	.text.Endpoint_Write_EStream_LE,"ax",@progbits
 2834               	.global	Endpoint_Write_EStream_LE
 2836               	Endpoint_Write_EStream_LE:
 2837               	.LFB76:
 2838               	.LSM371:
 2839               	.LVL371:
 2840 0000 BF92      		push r11
 2841 0002 CF92      		push r12
 2842 0004 DF92      		push r13
 2843 0006 EF92      		push r14
 2844 0008 FF92      		push r15
 2845 000a 0F93      		push r16
 2846 000c 1F93      		push r17
 2847 000e CF93      		push r28
 2848 0010 DF93      		push r29
 2849               	/* prologue: function */
 2850               	/* frame size = 0 */
 2851 0012 8C01      		movw r16,r24
 2852               	.LVL372:
 2853 0014 7B01      		movw r14,r22
 2854 0016 6A01      		movw r12,r20
 2855               	.LSM372:
 2856 0018 0E94 0000 		call Endpoint_WaitUntilReady
 2857               	.LVL373:
 2858 001c B82E      		mov r11,r24
 2859               	.LVL374:
 2860 001e 8823      		tst r24
 2861 0020 01F4      		brne .L261
 2862               	.LVL375:
 2863               	.LSM373:
 2864 0022 E801      		movw r28,r16
 2865               	.LVL376:
 2866 0024 00C0      		rjmp .L268
 2867               	.LVL377:
 2868               	.L266:
 2869               	.LBB473:
 2870               	.LBB474:
 2871               	.LSM374:
 2872 0026 8091 E800 		lds r24,232
 2873               	.LVL378:
 2874               	.LBE474:
 2875               	.LBE473:
 2876               	.LSM375:
 2877 002a 85FD      		sbrc r24,5
 2878 002c 00C0      		rjmp .L263
 2879               	.LBB475:
 2880               	.LBB476:
 2881               	.LSM376:
 2882 002e 8091 E800 		lds r24,232
 2883 0032 8E77      		andi r24,lo8(126)
 2884 0034 8093 E800 		sts 232,r24
 2885               	.LBE476:
 2886               	.LBE475:
 2887               	.LSM377:
 2888 0038 C114      		cp r12,__zero_reg__
 2889 003a D104      		cpc r13,__zero_reg__
 2890 003c 01F0      		breq .L264
 2891 003e F601      		movw r30,r12
 2892 0040 0995      		icall
 2893 0042 8130      		cpi r24,lo8(1)
 2894 0044 01F4      		brne .L264
 2895 0046 85E0      		ldi r24,lo8(5)
 2896               	.LVL379:
 2897 0048 00C0      		rjmp .L265
 2898               	.LVL380:
 2899               	.L264:
 2900               	.LSM378:
 2901 004a 0E94 0000 		call Endpoint_WaitUntilReady
 2902 004e 8823      		tst r24
 2903 0050 01F0      		breq .L268
 2904               	.LVL381:
 2905 0052 00C0      		rjmp .L265
 2906               	.LVL382:
 2907               	.L263:
 2908               	.LSM379:
 2909 0054 8E01      		movw r16,r28
 2910 0056 0F5F      		subi r16,lo8(-(1))
 2911 0058 1F4F      		sbci r17,hi8(-(1))
 2912               	.LVL383:
 2913 005a CE01      		movw r24,r28
 2914 005c 0E94 0000 		call __eerd_byte_m32u4
 2915               	.LBB477:
 2916               	.LBB478:
 2917               	.LSM380:
 2918 0060 8093 F100 		sts 241,r24
 2919               	.LBE478:
 2920               	.LBE477:
 2921               	.LSM381:
 2922 0064 0894      		sec
 2923 0066 E108      		sbc r14,__zero_reg__
 2924 0068 F108      		sbc r15,__zero_reg__
 2925 006a E801      		movw r28,r16
 2926               	.LVL384:
 2927               	.L268:
 2928               	.LSM382:
 2929 006c E114      		cp r14,__zero_reg__
 2930 006e F104      		cpc r15,__zero_reg__
 2931 0070 01F4      		brne .L266
 2932               	.LVL385:
 2933               	.L261:
 2934 0072 8B2D      		mov r24,r11
 2935               	.L265:
 2936               	.LVL386:
 2937               	/* epilogue start */
 2938               	.LSM383:
 2939 0074 DF91      		pop r29
 2940 0076 CF91      		pop r28
 2941               	.LVL387:
 2942 0078 1F91      		pop r17
 2943 007a 0F91      		pop r16
 2944               	.LVL388:
 2945 007c FF90      		pop r15
 2946 007e EF90      		pop r14
 2947               	.LVL389:
 2948 0080 DF90      		pop r13
 2949 0082 CF90      		pop r12
 2950               	.LVL390:
 2951 0084 BF90      		pop r11
 2952               	.LVL391:
 2953 0086 0895      		ret
 2954               	.LFE76:
 2956               		.section	.text.Endpoint_Write_PStream_LE,"ax",@progbits
 2957               	.global	Endpoint_Write_PStream_LE
 2959               	Endpoint_Write_PStream_LE:
 2960               	.LFB75:
 2961               	.LSM384:
 2962               	.LVL392:
 2963 0000 BF92      		push r11
 2964 0002 CF92      		push r12
 2965 0004 DF92      		push r13
 2966 0006 EF92      		push r14
 2967 0008 FF92      		push r15
 2968 000a 0F93      		push r16
 2969 000c 1F93      		push r17
 2970 000e CF93      		push r28
 2971 0010 DF93      		push r29
 2972               	/* prologue: function */
 2973               	/* frame size = 0 */
 2974 0012 F82E      		mov r15,r24
 2975 0014 E92E      		mov r14,r25
 2976               	.LVL393:
 2977 0016 8B01      		movw r16,r22
 2978 0018 6A01      		movw r12,r20
 2979               	.LSM385:
 2980 001a 0E94 0000 		call Endpoint_WaitUntilReady
 2981               	.LVL394:
 2982 001e B82E      		mov r11,r24
 2983               	.LVL395:
 2984 0020 8823      		tst r24
 2985 0022 01F4      		brne .L270
 2986               	.LVL396:
 2987               	.LSM386:
 2988 0024 8F2D      		mov r24,r15
 2989               	.LVL397:
 2990 0026 9E2D      		mov r25,r14
 2991               	.LVL398:
 2992 0028 9C01      		movw r18,r24
 2993               	.LVL399:
 2994 002a E901      		movw r28,r18
 2995               	.LVL400:
 2996 002c 00C0      		rjmp .L277
 2997               	.LVL401:
 2998               	.L275:
 2999               	.LBB479:
 3000               	.LBB480:
 3001               	.LSM387:
 3002 002e 8091 E800 		lds r24,232
 3003               	.LBE480:
 3004               	.LBE479:
 3005               	.LSM388:
 3006 0032 85FD      		sbrc r24,5
 3007 0034 00C0      		rjmp .L272
 3008               	.LBB481:
 3009               	.LBB482:
 3010               	.LSM389:
 3011 0036 8091 E800 		lds r24,232
 3012 003a 8E77      		andi r24,lo8(126)
 3013 003c 8093 E800 		sts 232,r24
 3014               	.LBE482:
 3015               	.LBE481:
 3016               	.LSM390:
 3017 0040 C114      		cp r12,__zero_reg__
 3018 0042 D104      		cpc r13,__zero_reg__
 3019 0044 01F0      		breq .L273
 3020 0046 F601      		movw r30,r12
 3021 0048 0995      		icall
 3022               	.LVL402:
 3023 004a 8130      		cpi r24,lo8(1)
 3024 004c 01F4      		brne .L273
 3025 004e 85E0      		ldi r24,lo8(5)
 3026               	.LVL403:
 3027 0050 00C0      		rjmp .L274
 3028               	.LVL404:
 3029               	.L273:
 3030               	.LSM391:
 3031 0052 0E94 0000 		call Endpoint_WaitUntilReady
 3032               	.LVL405:
 3033 0056 8823      		tst r24
 3034 0058 01F0      		breq .L277
 3035               	.LVL406:
 3036 005a 00C0      		rjmp .L274
 3037               	.LVL407:
 3038               	.L272:
 3039               	.LBB483:
 3040               	.LSM392:
 3041 005c FE01      		movw r30,r28
 3042               	.LVL408:
 3043 005e 2196      		adiw r28,1
 3044               	/* #APP */
 3045               	 ;  67 "../LUFA101122/LUFA/Drivers/USB/HighLevel/Template/Template_Endpoint_RW.c" 1
 3046 0060 E491      		lpm r30, Z
 3047               		
 3048               	 ;  0 "" 2
 3049               	.LVL409:
 3050               	/* #NOAPP */
 3051               	.LBE483:
 3052               	.LBB484:
 3053               	.LBB485:
 3054               	.LSM393:
 3055 0062 E093 F100 		sts 241,r30
 3056               	.LBE485:
 3057               	.LBE484:
 3058               	.LSM394:
 3059 0066 0150      		subi r16,lo8(-(-1))
 3060 0068 1040      		sbci r17,hi8(-(-1))
 3061               	.LVL410:
 3062               	.L277:
 3063               	.LSM395:
 3064 006a 0115      		cp r16,__zero_reg__
 3065 006c 1105      		cpc r17,__zero_reg__
 3066 006e 01F4      		brne .L275
 3067               	.LVL411:
 3068               	.L270:
 3069 0070 8B2D      		mov r24,r11
 3070               	.L274:
 3071               	.LVL412:
 3072               	/* epilogue start */
 3073               	.LSM396:
 3074 0072 DF91      		pop r29
 3075 0074 CF91      		pop r28
 3076               	.LVL413:
 3077 0076 1F91      		pop r17
 3078 0078 0F91      		pop r16
 3079               	.LVL414:
 3080 007a FF90      		pop r15
 3081               	.LVL415:
 3082 007c EF90      		pop r14
 3083               	.LVL416:
 3084 007e DF90      		pop r13
 3085 0080 CF90      		pop r12
 3086               	.LVL417:
 3087 0082 BF90      		pop r11
 3088               	.LVL418:
 3089 0084 0895      		ret
 3090               	.LFE75:
 3092               		.section	.text.Endpoint_Write_Stream_LE,"ax",@progbits
 3093               	.global	Endpoint_Write_Stream_LE
 3095               	Endpoint_Write_Stream_LE:
 3096               	.LFB74:
 3097               	.LSM397:
 3098               	.LVL419:
 3099 0000 DF92      		push r13
 3100 0002 EF92      		push r14
 3101 0004 FF92      		push r15
 3102 0006 0F93      		push r16
 3103 0008 1F93      		push r17
 3104 000a CF93      		push r28
 3105 000c DF93      		push r29
 3106               	/* prologue: function */
 3107               	/* frame size = 0 */
 3108 000e 182F      		mov r17,r24
 3109 0010 092F      		mov r16,r25
 3110               	.LVL420:
 3111 0012 EB01      		movw r28,r22
 3112 0014 7A01      		movw r14,r20
 3113               	.LSM398:
 3114 0016 0E94 0000 		call Endpoint_WaitUntilReady
 3115               	.LVL421:
 3116 001a D82E      		mov r13,r24
 3117               	.LVL422:
 3118 001c 8823      		tst r24
 3119 001e 01F4      		brne .L279
 3120               	.LVL423:
 3121               	.LSM399:
 3122 0020 812F      		mov r24,r17
 3123               	.LVL424:
 3124 0022 902F      		mov r25,r16
 3125               	.LVL425:
 3126 0024 9C01      		movw r18,r24
 3127               	.LVL426:
 3128 0026 8901      		movw r16,r18
 3129               	.LVL427:
 3130 0028 00C0      		rjmp .L286
 3131               	.LVL428:
 3132               	.L284:
 3133               	.LBB486:
 3134               	.LBB487:
 3135               	.LSM400:
 3136 002a 8091 E800 		lds r24,232
 3137               	.LBE487:
 3138               	.LBE486:
 3139               	.LSM401:
 3140 002e 85FD      		sbrc r24,5
 3141 0030 00C0      		rjmp .L281
 3142               	.LBB488:
 3143               	.LBB489:
 3144               	.LSM402:
 3145 0032 8091 E800 		lds r24,232
 3146 0036 8E77      		andi r24,lo8(126)
 3147 0038 8093 E800 		sts 232,r24
 3148               	.LBE489:
 3149               	.LBE488:
 3150               	.LSM403:
 3151 003c E114      		cp r14,__zero_reg__
 3152 003e F104      		cpc r15,__zero_reg__
 3153 0040 01F0      		breq .L282
 3154 0042 F701      		movw r30,r14
 3155 0044 0995      		icall
 3156               	.LVL429:
 3157 0046 8130      		cpi r24,lo8(1)
 3158 0048 01F4      		brne .L282
 3159 004a 85E0      		ldi r24,lo8(5)
 3160               	.LVL430:
 3161 004c 00C0      		rjmp .L283
 3162               	.LVL431:
 3163               	.L282:
 3164               	.LSM404:
 3165 004e 0E94 0000 		call Endpoint_WaitUntilReady
 3166               	.LVL432:
 3167 0052 8823      		tst r24
 3168 0054 01F0      		breq .L286
 3169               	.LVL433:
 3170 0056 00C0      		rjmp .L283
 3171               	.LVL434:
 3172               	.L281:
 3173               	.LSM405:
 3174 0058 F801      		movw r30,r16
 3175 005a 8191      		ld r24,Z+
 3176 005c 8F01      		movw r16,r30
 3177               	.LBB490:
 3178               	.LBB491:
 3179               	.LSM406:
 3180 005e 8093 F100 		sts 241,r24
 3181               	.LBE491:
 3182               	.LBE490:
 3183               	.LSM407:
 3184 0062 2197      		sbiw r28,1
 3185               	.LVL435:
 3186               	.L286:
 3187               	.LSM408:
 3188 0064 2097      		sbiw r28,0
 3189 0066 01F4      		brne .L284
 3190               	.LVL436:
 3191               	.L279:
 3192 0068 8D2D      		mov r24,r13
 3193               	.L283:
 3194               	.LVL437:
 3195               	/* epilogue start */
 3196               	.LSM409:
 3197 006a DF91      		pop r29
 3198 006c CF91      		pop r28
 3199               	.LVL438:
 3200 006e 1F91      		pop r17
 3201               	.LVL439:
 3202 0070 0F91      		pop r16
 3203               	.LVL440:
 3204 0072 FF90      		pop r15
 3205 0074 EF90      		pop r14
 3206               	.LVL441:
 3207 0076 DF90      		pop r13
 3208               	.LVL442:
 3209 0078 0895      		ret
 3210               	.LFE74:
 3212               		.section	.text.Endpoint_Discard_Stream,"ax",@progbits
 3213               	.global	Endpoint_Discard_Stream
 3215               	Endpoint_Discard_Stream:
 3216               	.LFB73:
 3217               	.LSM410:
 3218               	.LVL443:
 3219 0000 FF92      		push r15
 3220 0002 0F93      		push r16
 3221 0004 1F93      		push r17
 3222 0006 CF93      		push r28
 3223 0008 DF93      		push r29
 3224               	/* prologue: function */
 3225               	/* frame size = 0 */
 3226 000a EC01      		movw r28,r24
 3227 000c 8B01      		movw r16,r22
 3228               	.LSM411:
 3229 000e 0E94 0000 		call Endpoint_WaitUntilReady
 3230               	.LVL444:
 3231 0012 F82E      		mov r15,r24
 3232               	.LVL445:
 3233 0014 8823      		tst r24
 3234 0016 01F0      		breq .L295
 3235               	.LVL446:
 3236 0018 00C0      		rjmp .L288
 3237               	.LVL447:
 3238               	.L293:
 3239               	.LBB492:
 3240               	.LBB493:
 3241               	.LSM412:
 3242 001a 8091 E800 		lds r24,232
 3243               	.LVL448:
 3244               	.LBE493:
 3245               	.LBE492:
 3246               	.LSM413:
 3247 001e 85FD      		sbrc r24,5
 3248 0020 00C0      		rjmp .L290
 3249               	.LBB494:
 3250               	.LBB495:
 3251               	.LSM414:
 3252 0022 8091 E800 		lds r24,232
 3253 0026 8B77      		andi r24,lo8(123)
 3254 0028 8093 E800 		sts 232,r24
 3255               	.LBE495:
 3256               	.LBE494:
 3257               	.LSM415:
 3258 002c 0115      		cp r16,__zero_reg__
 3259 002e 1105      		cpc r17,__zero_reg__
 3260 0030 01F0      		breq .L291
 3261 0032 F801      		movw r30,r16
 3262 0034 0995      		icall
 3263 0036 8130      		cpi r24,lo8(1)
 3264 0038 01F4      		brne .L291
 3265 003a 85E0      		ldi r24,lo8(5)
 3266               	.LVL449:
 3267 003c 00C0      		rjmp .L292
 3268               	.LVL450:
 3269               	.L291:
 3270               	.LSM416:
 3271 003e 0E94 0000 		call Endpoint_WaitUntilReady
 3272 0042 8823      		tst r24
 3273 0044 01F0      		breq .L295
 3274               	.LVL451:
 3275 0046 00C0      		rjmp .L292
 3276               	.LVL452:
 3277               	.L290:
 3278               	.LBB496:
 3279               	.LBB497:
 3280               	.LSM417:
 3281 0048 8091 F100 		lds r24,241
 3282               	.LVL453:
 3283               	.LBE497:
 3284               	.LBE496:
 3285               	.LSM418:
 3286 004c 2197      		sbiw r28,1
 3287               	.LVL454:
 3288               	.L295:
 3289               	.LSM419:
 3290 004e 2097      		sbiw r28,0
 3291 0050 01F4      		brne .L293
 3292               	.L288:
 3293 0052 8F2D      		mov r24,r15
 3294               	.LVL455:
 3295               	.L292:
 3296               	.LVL456:
 3297               	/* epilogue start */
 3298               	.LSM420:
 3299 0054 DF91      		pop r29
 3300 0056 CF91      		pop r28
 3301               	.LVL457:
 3302 0058 1F91      		pop r17
 3303 005a 0F91      		pop r16
 3304               	.LVL458:
 3305 005c FF90      		pop r15
 3306               	.LVL459:
 3307 005e 0895      		ret
 3308               	.LFE73:
 3494               	.Letext0:
DEFINED SYMBOLS
                            *ABS*:00000000 EndpointStream.c
C:\Users\Sean\AppData\Local\Temp/ccwGUQzw.s:2      *ABS*:0000003f __SREG__
C:\Users\Sean\AppData\Local\Temp/ccwGUQzw.s:3      *ABS*:0000003e __SP_H__
C:\Users\Sean\AppData\Local\Temp/ccwGUQzw.s:4      *ABS*:0000003d __SP_L__
C:\Users\Sean\AppData\Local\Temp/ccwGUQzw.s:5      *ABS*:00000034 __CCP__
C:\Users\Sean\AppData\Local\Temp/ccwGUQzw.s:6      *ABS*:00000000 __tmp_reg__
C:\Users\Sean\AppData\Local\Temp/ccwGUQzw.s:7      *ABS*:00000001 __zero_reg__
C:\Users\Sean\AppData\Local\Temp/ccwGUQzw.s:19     .text.Endpoint_Write_Control_Stream_LE:00000000 Endpoint_Write_Control_Stream_LE
C:\Users\Sean\AppData\Local\Temp/ccwGUQzw.s:218    .text.Endpoint_Write_Control_PStream_LE:00000000 Endpoint_Write_Control_PStream_LE
C:\Users\Sean\AppData\Local\Temp/ccwGUQzw.s:432    .text.Endpoint_Write_Control_Stream_BE:00000000 Endpoint_Write_Control_Stream_BE
C:\Users\Sean\AppData\Local\Temp/ccwGUQzw.s:637    .text.Endpoint_Write_Control_PStream_BE:00000000 Endpoint_Write_Control_PStream_BE
C:\Users\Sean\AppData\Local\Temp/ccwGUQzw.s:859    .text.Endpoint_Read_Control_Stream_LE:00000000 Endpoint_Read_Control_Stream_LE
C:\Users\Sean\AppData\Local\Temp/ccwGUQzw.s:1010   .text.Endpoint_Read_Control_Stream_BE:00000000 Endpoint_Read_Control_Stream_BE
C:\Users\Sean\AppData\Local\Temp/ccwGUQzw.s:1173   .text.Endpoint_Read_Control_EStream_BE:00000000 Endpoint_Read_Control_EStream_BE
C:\Users\Sean\AppData\Local\Temp/ccwGUQzw.s:1364   .text.Endpoint_Read_Control_EStream_LE:00000000 Endpoint_Read_Control_EStream_LE
C:\Users\Sean\AppData\Local\Temp/ccwGUQzw.s:1542   .text.Endpoint_Write_Control_EStream_BE:00000000 Endpoint_Write_Control_EStream_BE
C:\Users\Sean\AppData\Local\Temp/ccwGUQzw.s:1776   .text.Endpoint_Write_Control_EStream_LE:00000000 Endpoint_Write_Control_EStream_LE
C:\Users\Sean\AppData\Local\Temp/ccwGUQzw.s:2001   .text.Endpoint_Read_EStream_BE:00000000 Endpoint_Read_EStream_BE
C:\Users\Sean\AppData\Local\Temp/ccwGUQzw.s:2122   .text.Endpoint_Read_Stream_BE:00000000 Endpoint_Read_Stream_BE
C:\Users\Sean\AppData\Local\Temp/ccwGUQzw.s:2235   .text.Endpoint_Read_EStream_LE:00000000 Endpoint_Read_EStream_LE
C:\Users\Sean\AppData\Local\Temp/ccwGUQzw.s:2359   .text.Endpoint_Read_Stream_LE:00000000 Endpoint_Read_Stream_LE
C:\Users\Sean\AppData\Local\Temp/ccwGUQzw.s:2479   .text.Endpoint_Write_PStream_BE:00000000 Endpoint_Write_PStream_BE
C:\Users\Sean\AppData\Local\Temp/ccwGUQzw.s:2603   .text.Endpoint_Write_EStream_BE:00000000 Endpoint_Write_EStream_BE
C:\Users\Sean\AppData\Local\Temp/ccwGUQzw.s:2723   .text.Endpoint_Write_Stream_BE:00000000 Endpoint_Write_Stream_BE
C:\Users\Sean\AppData\Local\Temp/ccwGUQzw.s:2836   .text.Endpoint_Write_EStream_LE:00000000 Endpoint_Write_EStream_LE
C:\Users\Sean\AppData\Local\Temp/ccwGUQzw.s:2959   .text.Endpoint_Write_PStream_LE:00000000 Endpoint_Write_PStream_LE
C:\Users\Sean\AppData\Local\Temp/ccwGUQzw.s:3095   .text.Endpoint_Write_Stream_LE:00000000 Endpoint_Write_Stream_LE
C:\Users\Sean\AppData\Local\Temp/ccwGUQzw.s:3215   .text.Endpoint_Discard_Stream:00000000 Endpoint_Discard_Stream

UNDEFINED SYMBOLS
USB_ControlRequest
USB_DeviceState
__eeupd_byte_m32u4
__eerd_byte_m32u4
Endpoint_WaitUntilReady
