; generated by ARM C/C++ Compiler, 4.1 [Build 481]
; commandline ArmCC [--debug -c --asm --interleave -o.\Obj\glcd_lpc1700.o --depend=.\Obj\glcd_lpc1700.d --cpu=Cortex-M3 --apcs=interwork -O3 -I.\FlashFS -Id:\Keil\ARM\INC -Id:\Keil\ARM\INC\NXP\LPC17xx --omf_browse=.\Obj\glcd_lpc1700.crf GLCD_LPC1700.c]
                          THUMB

                          AREA ||.text||, CODE, READONLY, ALIGN=2

                  wait_delay PROC
                  |L1.0|
;;;95     
;;;96     void wait_delay(int count)
000000  1e40              SUBS     r0,r0,#1
;;;97     {
;;;98       while(count--);
000002  d2fd              BCS      |L1.0|
;;;99     }
000004  4770              BX       lr
;;;100    
                          ENDP

                  lcd_send PROC
;;;106    
;;;107    static __inline unsigned char lcd_send (unsigned short byte) {
000006  49fc              LDR      r1,|L1.1016|
;;;108    
;;;109      LPC_GPIO2->FIODIR |= 0x000000ff;  //P2.0...P2.7 Output
000008  6c0a              LDR      r2,[r1,#0x40]
00000a  f04202ff          ORR      r2,r2,#0xff
00000e  640a              STR      r2,[r1,#0x40]
;;;110      LCD_DIR(1)		   				//Interface A->B
000010  f44f1200          MOV      r2,#0x200000
000014  618a              STR      r2,[r1,#0x18]
;;;111      LCD_EN(0)	                        //Enable 2A->2B
000016  1092              ASRS     r2,r2,#2
000018  61ca              STR      r2,[r1,#0x1c]
;;;112      LPC_GPIO2->FIOPIN =  byte;        //Write D0..D7
00001a  6548              STR      r0,[r1,#0x54]
;;;113      LCD_LE(1)                         
00001c  0052              LSLS     r2,r2,#1
00001e  618a              STR      r2,[r1,#0x18]
;;;114      LCD_LE(0)							//latch D0..D7
000020  61ca              STR      r2,[r1,#0x1c]
;;;115      LPC_GPIO2->FIOPIN =  byte >> 8;   //Write D8..D15 
000022  0a00              LSRS     r0,r0,#8
000024  6548              STR      r0,[r1,#0x54]
;;;116      return(1);
000026  2001              MOVS     r0,#1
;;;117    }
000028  4770              BX       lr
;;;118    
                          ENDP

                  GLCD_Init PROC
;;;268    
;;;269    void GLCD_Init (void) { 
00002a  e92d47f0          PUSH     {r4-r10,lr}
;;;270      static unsigned short driverCode;
;;;271    
;;;272      /* Configure the LCD Control pins                                           */
;;;273      LPC_GPIO0->FIODIR   |= 0x03f80000;
00002e  48f2              LDR      r0,|L1.1016|
000030  6801              LDR      r1,[r0,#0]
000032  f041717e          ORR      r1,r1,#0x3f80000
000036  6001              STR      r1,[r0,#0]
;;;274      LPC_GPIO0->FIOSET    = 0x03f80000;	
000038  f04f717e          MOV      r1,#0x3f80000
00003c  6181              STR      r1,[r0,#0x18]
;;;275    
;;;276      delay(5);                             /* Delay 50 ms                        */
00003e  2005              MOVS     r0,#5
000040  f7fffffe          BL       delay
;;;277    
;;;278      driverCode = rd_reg(0x00);
000044  2000              MOVS     r0,#0
000046  f7fffffe          BL       rd_reg
00004a  49ec              LDR      r1,|L1.1020|
;;;279    
;;;280      if(driverCode == 0x4531)				//2.8" TFT LCD Module,DriverIC is LGDP4531
;;;281      {
;;;282      	wr_reg(0x00,0x0001);
;;;283      	wr_reg(0x10,0x0628);
;;;284      	wr_reg(0x12,0x0006);
;;;285      	wr_reg(0x13,0x0A32);
;;;286      	wr_reg(0x11,0x0040);
;;;287      	wr_reg(0x15,0x0050);
;;;288      	wr_reg(0x12,0x0016);
;;;289      	delay(15);
;;;290      	wr_reg(0x10,0x5660);
;;;291      	delay(15);
;;;292      	wr_reg(0x13,0x2A4E);
;;;293      	wr_reg(0x01,0x0100);
00004c  f44f7480          MOV      r4,#0x100
;;;294      	wr_reg(0x02,0x0300);
;;;295    	
;;;296      	wr_reg(0x03,0x1030);
;;;297    	
;;;298      	wr_reg(0x08,0x0202);
;;;299      	wr_reg(0x0A,0x0000);
;;;300      	wr_reg(0x30,0x0000);
;;;301      	wr_reg(0x31,0x0402);
;;;302      	wr_reg(0x32,0x0106);
000050  1da7              ADDS     r7,r4,#6
000052  8088              STRH     r0,[r1,#4]            ;278
000054  f5a0418a          SUB      r1,r0,#0x4500         ;280
000058  f2410530          MOV      r5,#0x1030            ;296
00005c  f2402602          MOV      r6,#0x202             ;298
;;;303      	wr_reg(0x33,0x0700);
000060  f44f68e0          MOV      r8,#0x700
;;;304      	wr_reg(0x34,0x0104);
;;;305      	wr_reg(0x35,0x0301);
;;;306      	wr_reg(0x36,0x0707);
000064  f2407907          MOV      r9,#0x707
;;;307      	wr_reg(0x37,0x0305);
;;;308      	wr_reg(0x38,0x0208);
;;;309      	wr_reg(0x39,0x0F0B);
;;;310      	delay(15);
;;;311      	wr_reg(0x41,0x0002);
;;;312      	wr_reg(0x60,0x2700);
000068  f44f5a1c          MOV      r10,#0x2700
00006c  3931              SUBS     r1,r1,#0x31           ;280
00006e  d17e              BNE      |L1.366|
000070  2101              MOVS     r1,#1                 ;282
000072  2000              MOVS     r0,#0                 ;282
000074  f7fffffe          BL       wr_reg
000078  f44f61c5          MOV      r1,#0x628             ;283
00007c  2010              MOVS     r0,#0x10              ;283
00007e  f7fffffe          BL       wr_reg
000082  2106              MOVS     r1,#6                 ;284
000084  2012              MOVS     r0,#0x12              ;284
000086  f7fffffe          BL       wr_reg
00008a  f6402132          MOV      r1,#0xa32             ;285
00008e  2013              MOVS     r0,#0x13              ;285
000090  f7fffffe          BL       wr_reg
000094  2140              MOVS     r1,#0x40              ;286
000096  2011              MOVS     r0,#0x11              ;286
000098  f7fffffe          BL       wr_reg
00009c  2150              MOVS     r1,#0x50              ;287
00009e  2015              MOVS     r0,#0x15              ;287
0000a0  f7fffffe          BL       wr_reg
0000a4  2116              MOVS     r1,#0x16              ;288
0000a6  2012              MOVS     r0,#0x12              ;288
0000a8  f7fffffe          BL       wr_reg
0000ac  200f              MOVS     r0,#0xf               ;289
0000ae  f7fffffe          BL       delay
0000b2  f2456160          MOV      r1,#0x5660            ;290
0000b6  2010              MOVS     r0,#0x10              ;290
0000b8  f7fffffe          BL       wr_reg
0000bc  200f              MOVS     r0,#0xf               ;291
0000be  f7fffffe          BL       delay
0000c2  f642214e          MOV      r1,#0x2a4e            ;292
0000c6  2013              MOVS     r0,#0x13              ;292
0000c8  f7fffffe          BL       wr_reg
0000cc  4621              MOV      r1,r4                 ;293
0000ce  2001              MOVS     r0,#1                 ;293
0000d0  f7fffffe          BL       wr_reg
0000d4  f44f7140          MOV      r1,#0x300             ;294
0000d8  2002              MOVS     r0,#2                 ;294
0000da  f7fffffe          BL       wr_reg
0000de  4629              MOV      r1,r5                 ;296
0000e0  2003              MOVS     r0,#3                 ;296
0000e2  f7fffffe          BL       wr_reg
0000e6  4631              MOV      r1,r6                 ;298
0000e8  2008              MOVS     r0,#8                 ;298
0000ea  f7fffffe          BL       wr_reg
0000ee  2100              MOVS     r1,#0                 ;299
0000f0  200a              MOVS     r0,#0xa               ;299
0000f2  f7fffffe          BL       wr_reg
0000f6  2100              MOVS     r1,#0                 ;300
0000f8  2030              MOVS     r0,#0x30              ;300
0000fa  f7fffffe          BL       wr_reg
0000fe  f2404102          MOV      r1,#0x402             ;301
000102  2031              MOVS     r0,#0x31              ;301
000104  f7fffffe          BL       wr_reg
000108  4639              MOV      r1,r7                 ;302
00010a  2032              MOVS     r0,#0x32              ;302
00010c  f7fffffe          BL       wr_reg
000110  4641              MOV      r1,r8                 ;303
000112  2033              MOVS     r0,#0x33              ;303
000114  f7fffffe          BL       wr_reg
000118  1d21              ADDS     r1,r4,#4              ;304
00011a  2034              MOVS     r0,#0x34              ;304
00011c  f7fffffe          BL       wr_reg
000120  f2403101          MOV      r1,#0x301             ;305
000124  2035              MOVS     r0,#0x35              ;305
000126  f7fffffe          BL       wr_reg
00012a  4649              MOV      r1,r9                 ;306
00012c  2036              MOVS     r0,#0x36              ;306
00012e  f7fffffe          BL       wr_reg
000132  f2403105          MOV      r1,#0x305             ;307
000136  2037              MOVS     r0,#0x37              ;307
000138  f7fffffe          BL       wr_reg
00013c  1db1              ADDS     r1,r6,#6              ;308
00013e  2038              MOVS     r0,#0x38              ;308
000140  f7fffffe          BL       wr_reg
000144  f640710b          MOV      r1,#0xf0b             ;309
000148  2039              MOVS     r0,#0x39              ;309
00014a  f7fffffe          BL       wr_reg
00014e  200f              MOVS     r0,#0xf               ;310
000150  f7fffffe          BL       delay
000154  2102              MOVS     r1,#2                 ;311
000156  2041              MOVS     r0,#0x41              ;311
000158  f7fffffe          BL       wr_reg
00015c  4651              MOV      r1,r10
00015e  2060              MOVS     r0,#0x60
000160  f7fffffe          BL       wr_reg
;;;313      	wr_reg(0x61,0x0001);
000164  2101              MOVS     r1,#1
000166  2061              MOVS     r0,#0x61
000168  f7fffffe          BL       wr_reg
;;;314      	wr_reg(0x90,0x0119);
00016c  e000              B        |L1.368|
                  |L1.366|
00016e  e01b              B        |L1.424|
                  |L1.368|
000170  f2401119          MOV      r1,#0x119
000174  2090              MOVS     r0,#0x90
000176  f7fffffe          BL       wr_reg
;;;315      	wr_reg(0x92,0x010A);
00017a  1d39              ADDS     r1,r7,#4
00017c  2092              MOVS     r0,#0x92
00017e  f7fffffe          BL       wr_reg
;;;316      	wr_reg(0x93,0x0004);
000182  2104              MOVS     r1,#4
000184  2093              MOVS     r0,#0x93
000186  f7fffffe          BL       wr_reg
;;;317      	wr_reg(0xA0,0x0100);
00018a  4621              MOV      r1,r4
00018c  20a0              MOVS     r0,#0xa0
00018e  f7fffffe          BL       wr_reg
;;;318      	delay(15);
000192  200f              MOVS     r0,#0xf
000194  f7fffffe          BL       delay
;;;319      	wr_reg(0xA0,0x0000);
000198  2100              MOVS     r1,#0
00019a  20a0              MOVS     r0,#0xa0
00019c  f7fffffe          BL       wr_reg
;;;320      	delay(20);
0001a0  2014              MOVS     r0,#0x14
0001a2  f7fffffe          BL       delay
0001a6  e0ed              B        |L1.900|
                  |L1.424|
;;;321      }
;;;322      else if(driverCode == 0x9320)		 //3.2" TFT LCD Module,DriverIC is ILI9320
0001a8  f5a04113          SUB      r1,r0,#0x9300
0001ac  3920              SUBS     r1,r1,#0x20
0001ae  d17e              BNE      |L1.686|
;;;323      {
;;;324        /* Start Initial Sequence --------------------------------------------------*/
;;;325    	wr_reg(0xE5, 0x8000);                 /* Set the internal vcore voltage     */
0001b0  f44f4100          MOV      r1,#0x8000
0001b4  20e5              MOVS     r0,#0xe5
0001b6  f7fffffe          BL       wr_reg
;;;326    	wr_reg(0x00, 0x0001);                 /* Start internal OSC                 */
0001ba  2101              MOVS     r1,#1
0001bc  2000              MOVS     r0,#0
0001be  f7fffffe          BL       wr_reg
;;;327    	wr_reg(0x01, 0x0100);                 /* Set SS and SM bit                  */
0001c2  4621              MOV      r1,r4
0001c4  2001              MOVS     r0,#1
0001c6  f7fffffe          BL       wr_reg
;;;328    	wr_reg(0x02, 0x0700);                 /* Set 1 line inversion               */
0001ca  4641              MOV      r1,r8
0001cc  2002              MOVS     r0,#2
0001ce  f7fffffe          BL       wr_reg
;;;329    	wr_reg(0x03, 0x1030);                 /* Set GRAM write direction and BGR=1 */
0001d2  4629              MOV      r1,r5
0001d4  2003              MOVS     r0,#3
0001d6  f7fffffe          BL       wr_reg
;;;330    	wr_reg(0x04, 0x0000);                 /* Resize register                    */
0001da  2100              MOVS     r1,#0
0001dc  2004              MOVS     r0,#4
0001de  f7fffffe          BL       wr_reg
;;;331    	wr_reg(0x08, 0x0202);                 /* 2 lines each, back and front porch */
0001e2  4631              MOV      r1,r6
0001e4  2008              MOVS     r0,#8
0001e6  f7fffffe          BL       wr_reg
;;;332    	wr_reg(0x09, 0x0000);                 /* Set non-disp area refresh cyc ISC  */
0001ea  2100              MOVS     r1,#0
0001ec  2009              MOVS     r0,#9
0001ee  f7fffffe          BL       wr_reg
;;;333    	wr_reg(0x0A, 0x0000);                 /* FMARK function                     */
0001f2  2100              MOVS     r1,#0
0001f4  200a              MOVS     r0,#0xa
0001f6  f7fffffe          BL       wr_reg
;;;334    	wr_reg(0x0C, 0x0000);                 /* RGB interface setting              */
0001fa  2100              MOVS     r1,#0
0001fc  200c              MOVS     r0,#0xc
0001fe  f7fffffe          BL       wr_reg
;;;335    	wr_reg(0x0D, 0x0000);                 /* Frame marker Position              */
000202  2100              MOVS     r1,#0
000204  200d              MOVS     r0,#0xd
000206  f7fffffe          BL       wr_reg
;;;336    	wr_reg(0x0F, 0x0000);                 /* RGB interface polarity             */
00020a  2100              MOVS     r1,#0
00020c  200f              MOVS     r0,#0xf
00020e  f7fffffe          BL       wr_reg
;;;337    	
;;;338    	/* Power On sequence -------------------------------------------------------*/
;;;339    	wr_reg(0x10, 0x0000);                 /* Reset Power Control 1              */
000212  2100              MOVS     r1,#0
000214  2010              MOVS     r0,#0x10
000216  f7fffffe          BL       wr_reg
;;;340    	wr_reg(0x11, 0x0000);                 /* Reset Power Control 2              */
00021a  2100              MOVS     r1,#0
00021c  2011              MOVS     r0,#0x11
00021e  f7fffffe          BL       wr_reg
;;;341    	wr_reg(0x12, 0x0000);                 /* Reset Power Control 3              */
000222  2100              MOVS     r1,#0
000224  2012              MOVS     r0,#0x12
000226  f7fffffe          BL       wr_reg
;;;342    	wr_reg(0x13, 0x0000);                 /* Reset Power Control 4              */
00022a  2100              MOVS     r1,#0
00022c  2013              MOVS     r0,#0x13
00022e  f7fffffe          BL       wr_reg
;;;343    	delay(20);                            /* Discharge cap power voltage (200ms)*/
000232  2014              MOVS     r0,#0x14
000234  f7fffffe          BL       delay
;;;344        wr_reg(0x10, 0x17B0);                 /* SAP, BT[3:0], AP, DSTB, SLP, STB   */
000238  f24171b0          MOV      r1,#0x17b0
00023c  2010              MOVS     r0,#0x10
00023e  f7fffffe          BL       wr_reg
;;;345    	wr_reg(0x11, 0x0137);                 /* DC1[2:0], DC0[2:0], VC[2:0]        */
000242  f2401137          MOV      r1,#0x137
000246  2011              MOVS     r0,#0x11
000248  f7fffffe          BL       wr_reg
;;;346    	delay(5);                             /* Delay 50 ms                        */
00024c  2005              MOVS     r0,#5
00024e  f7fffffe          BL       delay
;;;347    	wr_reg(0x12, 0x0139);                 /* VREG1OUT voltage                   */
000252  f2401139          MOV      r1,#0x139
000256  2012              MOVS     r0,#0x12
000258  f7fffffe          BL       wr_reg
;;;348    	delay(5);                             /* Delay 50 ms                        */
00025c  2005              MOVS     r0,#5
00025e  f7fffffe          BL       delay
;;;349    	wr_reg(0x13, 0x1D00);                 /* VDV[4:0] for VCOM amplitude        */
000262  f44f51e8          MOV      r1,#0x1d00
000266  2013              MOVS     r0,#0x13
000268  f7fffffe          BL       wr_reg
;;;350    	wr_reg(0x29, 0x0013);                 /* VCM[4:0] for VCOMH                 */
00026c  2113              MOVS     r1,#0x13
00026e  2029              MOVS     r0,#0x29
000270  f7fffffe          BL       wr_reg
;;;351    	delay(5);                             /* Delay 50 ms                        */
000274  2005              MOVS     r0,#5
000276  f7fffffe          BL       delay
;;;352    	wr_reg(0x20, 0x0000);                 /* GRAM horizontal Address            */
00027a  2100              MOVS     r1,#0
00027c  2020              MOVS     r0,#0x20
00027e  f7fffffe          BL       wr_reg
;;;353    	wr_reg(0x21, 0x0000);                 /* GRAM Vertical Address              */
000282  2100              MOVS     r1,#0
000284  2021              MOVS     r0,#0x21
000286  f7fffffe          BL       wr_reg
;;;354    	
;;;355    	/* Adjust the Gamma Curve --------------------------------------------------*/
;;;356    	wr_reg(0x30, 0x0006);
00028a  2106              MOVS     r1,#6
00028c  2030              MOVS     r0,#0x30
00028e  f7fffffe          BL       wr_reg
;;;357    	wr_reg(0x31, 0x0101);
000292  f2401101          MOV      r1,#0x101
000296  2031              MOVS     r0,#0x31
000298  f7fffffe          BL       wr_reg
;;;358    	wr_reg(0x32, 0x0003);
00029c  2103              MOVS     r1,#3
00029e  2032              MOVS     r0,#0x32
0002a0  f7fffffe          BL       wr_reg
;;;359    	wr_reg(0x35, 0x0106);
0002a4  4639              MOV      r1,r7
0002a6  2035              MOVS     r0,#0x35
0002a8  f7fffffe          BL       wr_reg
;;;360    	wr_reg(0x36, 0x0B02);
0002ac  e000              B        |L1.688|
                  |L1.686|
0002ae  e069              B        |L1.900|
                  |L1.688|
0002b0  f6403102          MOV      r1,#0xb02
0002b4  2036              MOVS     r0,#0x36
0002b6  f7fffffe          BL       wr_reg
;;;361    	wr_reg(0x37, 0x0302);
0002ba  f2403102          MOV      r1,#0x302
0002be  2037              MOVS     r0,#0x37
0002c0  f7fffffe          BL       wr_reg
;;;362    	wr_reg(0x38, 0x0707);
0002c4  4649              MOV      r1,r9
0002c6  2038              MOVS     r0,#0x38
0002c8  f7fffffe          BL       wr_reg
;;;363    	wr_reg(0x39, 0x0007);
0002cc  2107              MOVS     r1,#7
0002ce  2039              MOVS     r0,#0x39
0002d0  f7fffffe          BL       wr_reg
;;;364    	wr_reg(0x3C, 0x0600);
0002d4  f44f61c0          MOV      r1,#0x600
0002d8  203c              MOVS     r0,#0x3c
0002da  f7fffffe          BL       wr_reg
;;;365    	wr_reg(0x3D, 0x020B);
0002de  f240210b          MOV      r1,#0x20b
0002e2  203d              MOVS     r0,#0x3d
0002e4  f7fffffe          BL       wr_reg
;;;366    	  
;;;367    	/* Set GRAM area -----------------------------------------------------------*/
;;;368    	wr_reg(0x50, 0x0000);                 /* Horizontal GRAM Start Address      */
0002e8  2100              MOVS     r1,#0
0002ea  2050              MOVS     r0,#0x50
0002ec  f7fffffe          BL       wr_reg
;;;369    	wr_reg(0x51, (HEIGHT-1));             /* Horizontal GRAM End   Address      */
0002f0  21ef              MOVS     r1,#0xef
0002f2  2051              MOVS     r0,#0x51
0002f4  f7fffffe          BL       wr_reg
;;;370    	wr_reg(0x52, 0x0000);                 /* Vertical   GRAM Start Address      */
0002f8  2100              MOVS     r1,#0
0002fa  2052              MOVS     r0,#0x52
0002fc  f7fffffe          BL       wr_reg
;;;371    	wr_reg(0x53, (WIDTH-1));              /* Vertical   GRAM End   Address      */
000300  f240113f          MOV      r1,#0x13f
000304  2053              MOVS     r0,#0x53
000306  f7fffffe          BL       wr_reg
;;;372    	wr_reg(0x60, 0x2700);                 /* Gate Scan Line                     */
00030a  4651              MOV      r1,r10
00030c  2060              MOVS     r0,#0x60
00030e  f7fffffe          BL       wr_reg
;;;373    	wr_reg(0x61, 0x0001);                 /* NDL,VLE, REV                       */
000312  2101              MOVS     r1,#1
000314  2061              MOVS     r0,#0x61
000316  f7fffffe          BL       wr_reg
;;;374    	wr_reg(0x6A, 0x0000);                 /* Set scrolling line                 */
00031a  2100              MOVS     r1,#0
00031c  206a              MOVS     r0,#0x6a
00031e  f7fffffe          BL       wr_reg
;;;375    	
;;;376    	/* Partial Display Control -------------------------------------------------*/
;;;377    	wr_reg(0x80, 0x0000);
000322  2100              MOVS     r1,#0
000324  2080              MOVS     r0,#0x80
000326  f7fffffe          BL       wr_reg
;;;378    	wr_reg(0x81, 0x0000);
00032a  2100              MOVS     r1,#0
00032c  2081              MOVS     r0,#0x81
00032e  f7fffffe          BL       wr_reg
;;;379    	wr_reg(0x82, 0x0000);
000332  2100              MOVS     r1,#0
000334  2082              MOVS     r0,#0x82
000336  f7fffffe          BL       wr_reg
;;;380    	wr_reg(0x83, 0x0000);
00033a  2100              MOVS     r1,#0
00033c  2083              MOVS     r0,#0x83
00033e  f7fffffe          BL       wr_reg
;;;381    	wr_reg(0x84, 0x0000);
000342  2100              MOVS     r1,#0
000344  2084              MOVS     r0,#0x84
000346  f7fffffe          BL       wr_reg
;;;382    	wr_reg(0x85, 0x0000);
00034a  2100              MOVS     r1,#0
00034c  2085              MOVS     r0,#0x85
00034e  f7fffffe          BL       wr_reg
;;;383    	
;;;384    	/* Panel Control -----------------------------------------------------------*/
;;;385    	wr_reg(0x90, 0x0010);
000352  2110              MOVS     r1,#0x10
000354  2090              MOVS     r0,#0x90
000356  f7fffffe          BL       wr_reg
;;;386    	wr_reg(0x92, 0x0000);
00035a  2100              MOVS     r1,#0
00035c  2092              MOVS     r0,#0x92
00035e  f7fffffe          BL       wr_reg
;;;387    	wr_reg(0x93, 0x0003);
000362  2103              MOVS     r1,#3
000364  2093              MOVS     r0,#0x93
000366  f7fffffe          BL       wr_reg
;;;388    	wr_reg(0x95, 0x0110);
00036a  f44f7188          MOV      r1,#0x110
00036e  2095              MOVS     r0,#0x95
000370  f7fffffe          BL       wr_reg
;;;389    	wr_reg(0x97, 0x0000);
000374  2100              MOVS     r1,#0
000376  2097              MOVS     r0,#0x97
000378  f7fffffe          BL       wr_reg
;;;390    	wr_reg(0x98, 0x0000);
00037c  2100              MOVS     r1,#0
00037e  2098              MOVS     r0,#0x98
000380  f7fffffe          BL       wr_reg
                  |L1.900|
;;;391      }
;;;392      /* Set GRAM write direction and BGR = 1
;;;393         I/D=10 (Horizontal : increment, Vertical : increment)
;;;394         AM=1 (address is updated in vertical writing direction)                  */
;;;395      wr_reg(0x03, 0x1038);
000384  f2410138          MOV      r1,#0x1038
000388  2003              MOVS     r0,#3
00038a  f7fffffe          BL       wr_reg
;;;396    
;;;397      wr_reg(0x07, 0x0173);                 /* 262K color and display ON          */ 
00038e  e8bd47f0          POP      {r4-r10,lr}
000392  f2401173          MOV      r1,#0x173
000396  2007              MOVS     r0,#7
000398  f7ffbffe          B.W      wr_reg
;;;398    }
;;;399    
                          ENDP

                  GLCD_WindowMax PROC
;;;406    
;;;407    void GLCD_WindowMax (void) {
00039c  b510              PUSH     {r4,lr}
;;;408    
;;;409      wr_reg(0x50, 0);                      /* Horizontal GRAM Start Address      */
00039e  2100              MOVS     r1,#0
0003a0  2050              MOVS     r0,#0x50
0003a2  f7fffffe          BL       wr_reg
;;;410      wr_reg(0x51, HEIGHT-1);               /* Horizontal GRAM End   Address (-1) */
0003a6  21ef              MOVS     r1,#0xef
0003a8  2051              MOVS     r0,#0x51
0003aa  f7fffffe          BL       wr_reg
;;;411      wr_reg(0x52, 0);                      /* Vertical   GRAM Start Address      */
0003ae  2100              MOVS     r1,#0
0003b0  2052              MOVS     r0,#0x52
0003b2  f7fffffe          BL       wr_reg
;;;412      wr_reg(0x53, WIDTH-1);                /* Vertical   GRAM End   Address (-1) */
0003b6  e8bd4010          POP      {r4,lr}
0003ba  f240113f          MOV      r1,#0x13f
0003be  2053              MOVS     r0,#0x53
0003c0  f7ffbffe          B.W      wr_reg
;;;413    }
;;;414    
                          ENDP

                  GLCD_PutPixel PROC
;;;422    
;;;423    void GLCD_PutPixel (unsigned int x, unsigned int y) {
0003c4  b570              PUSH     {r4-r6,lr}
0003c6  4604              MOV      r4,r0
;;;424    
;;;425      wr_reg(0x20, y);
0003c8  b289              UXTH     r1,r1
0003ca  2020              MOVS     r0,#0x20
0003cc  f7fffffe          BL       wr_reg
;;;426      wr_reg(0x21, WIDTH-1-x);
0003d0  f2a4143f          SUB      r4,r4,#0x13f
0003d4  4260              RSBS     r0,r4,#0
0003d6  b281              UXTH     r1,r0
0003d8  2021              MOVS     r0,#0x21
0003da  f7fffffe          BL       wr_reg
;;;427      LCD_CS(0)
0003de  4d06              LDR      r5,|L1.1016|
0003e0  f44f0480          MOV      r4,#0x400000
0003e4  61ec              STR      r4,[r5,#0x1c]
;;;428      wr_cmd(0x22);
0003e6  2022              MOVS     r0,#0x22
0003e8  f7fffffe          BL       wr_cmd
;;;429      wr_dat(TextColor);
0003ec  4803              LDR      r0,|L1.1020|
0003ee  8800              LDRH     r0,[r0,#0]  ; TextColor
0003f0  f7fffffe          BL       wr_dat
;;;430      LCD_CS(1)
0003f4  61ac              STR      r4,[r5,#0x18]
                  |L1.1014|
;;;431    }
0003f6  bd70              POP      {r4-r6,pc}
                  |L1.1016|
                          DCD      0x2009c000
                  |L1.1020|
                          DCD      ||.data||
                          ENDP

                  GLCD_SetTextColor PROC
;;;439    
;;;440    void GLCD_SetTextColor (unsigned short color) {
000400  49f3              LDR      r1,|L1.2000|
;;;441    
;;;442      TextColor = color;
000402  8008              STRH     r0,[r1,#0]
;;;443    }
000404  4770              BX       lr
;;;444    
                          ENDP

                  GLCD_SetBackColor PROC
;;;451    
;;;452    void GLCD_SetBackColor (unsigned short color) {
000406  49f2              LDR      r1,|L1.2000|
;;;453    
;;;454      BackColor = color;
000408  8048              STRH     r0,[r1,#2]
;;;455    }
00040a  4770              BX       lr
;;;456    
                          ENDP

                  GLCD_Clear PROC
;;;463    
;;;464    void GLCD_Clear (unsigned short color) {
00040c  e92d41f0          PUSH     {r4-r8,lr}
000410  4680              MOV      r8,r0
;;;465      unsigned int   i;
;;;466    
;;;467      GLCD_WindowMax();
000412  f7fffffe          BL       GLCD_WindowMax
;;;468    
;;;469      wr_reg(0x20, 0);
000416  2100              MOVS     r1,#0
000418  2020              MOVS     r0,#0x20
00041a  f7fffffe          BL       wr_reg
;;;470      wr_reg(0x21, 0);
00041e  2100              MOVS     r1,#0
000420  2021              MOVS     r0,#0x21
000422  f7fffffe          BL       wr_reg
;;;471      LCD_CS(0)
000426  4deb              LDR      r5,|L1.2004|
000428  f44f0680          MOV      r6,#0x400000
00042c  61ee              STR      r6,[r5,#0x1c]
;;;472      wr_cmd(0x22);
00042e  2022              MOVS     r0,#0x22
000430  f7fffffe          BL       wr_cmd
000434  0070              LSLS     r0,r6,#1
000436  61a8              STR      r0,[r5,#0x18]
;;;473      wr_dat_start();
;;;474      for(i = 0; i < (WIDTH*HEIGHT); i++)
000438  2400              MOVS     r4,#0
00043a  f44f3796          MOV      r7,#0x12c00
                  |L1.1086|
;;;475        wr_dat_only(color);
00043e  4640              MOV      r0,r8
000440  f7fffffe          BL       wr_dat_only
000444  1c64              ADDS     r4,r4,#1              ;474
000446  42bc              CMP      r4,r7                 ;474
000448  d3f9              BCC      |L1.1086|
00044a  61ae              STR      r6,[r5,#0x18]         ;474
;;;476      wr_dat_stop();
;;;477    }
00044c  e8bd81f0          POP      {r4-r8,pc}
;;;478    
                          ENDP

                  GLCD_DrawChar PROC
;;;487    
;;;488    void GLCD_DrawChar (unsigned int x, unsigned int y, unsigned short *c) {
000450  e92d5ff0          PUSH     {r4-r12,lr}
000454  460e              MOV      r6,r1
;;;489      int idx = 0, i, j;
;;;490    
;;;491      x = WIDTH-x-CHAR_W;
000456  f5c07498          RSB      r4,r0,#0x130
;;;492      wr_reg(0x50, y);                      /* Horizontal GRAM Start Address      */
00045a  b289              UXTH     r1,r1
00045c  4615              MOV      r5,r2                 ;488
00045e  2700              MOVS     r7,#0                 ;489
000460  4688              MOV      r8,r1
000462  2050              MOVS     r0,#0x50
000464  f7fffffe          BL       wr_reg
;;;493      wr_reg(0x51, y+CHAR_H-1);             /* Horizontal GRAM End   Address (-1) */
000468  3617              ADDS     r6,r6,#0x17
00046a  b2b1              UXTH     r1,r6
00046c  2051              MOVS     r0,#0x51
00046e  f7fffffe          BL       wr_reg
;;;494      wr_reg(0x52, x);                      /* Vertical   GRAM Start Address      */
000472  b2a1              UXTH     r1,r4
000474  460e              MOV      r6,r1
000476  2052              MOVS     r0,#0x52
000478  f7fffffe          BL       wr_reg
;;;495      wr_reg(0x53, x+CHAR_W-1);             /* Vertical   GRAM End   Address (-1) */
00047c  340f              ADDS     r4,r4,#0xf
00047e  b2a1              UXTH     r1,r4
000480  2053              MOVS     r0,#0x53
000482  f7fffffe          BL       wr_reg
000486  4641              MOV      r1,r8
;;;496    
;;;497      wr_reg(0x20, y);
000488  2020              MOVS     r0,#0x20
00048a  f7fffffe          BL       wr_reg
00048e  4631              MOV      r1,r6
;;;498      wr_reg(0x21, x);
000490  2021              MOVS     r0,#0x21
000492  f7fffffe          BL       wr_reg
;;;499      LCD_CS(0)
000496  f8dfa33c          LDR      r10,|L1.2004|
00049a  f44f0b80          MOV      r11,#0x400000
00049e  4654              MOV      r4,r10
0004a0  f8cab01c          STR      r11,[r10,#0x1c]
;;;500      wr_cmd(0x22);
0004a4  2022              MOVS     r0,#0x22
0004a6  f7fffffe          BL       wr_cmd
0004aa  f44f0000          MOV      r0,#0x800000
0004ae  61a0              STR      r0,[r4,#0x18]
;;;501      wr_dat_start();
;;;502      for (j = 0; j < CHAR_H; j++) {
;;;503        for (i = CHAR_W-1; i >= 0; i--) {
;;;504          if((c[idx] & (1 << i)) == 0x00) {
;;;505            wr_dat_only(BackColor);
0004b0  f8df831c          LDR      r8,|L1.2000|
0004b4  2600              MOVS     r6,#0                 ;502
0004b6  f04f0901          MOV      r9,#1                 ;504
                  |L1.1210|
0004ba  240f              MOVS     r4,#0xf               ;503
                  |L1.1212|
0004bc  f8351017          LDRH     r1,[r5,r7,LSL #1]     ;504
0004c0  fa09f004          LSL      r0,r9,r4              ;504
0004c4  4201              TST      r1,r0                 ;504
;;;506          } else {
;;;507            wr_dat_only(TextColor);
0004c6  4640              MOV      r0,r8
0004c8  d00c              BEQ      |L1.1252|
0004ca  8800              LDRH     r0,[r0,#0]  ; TextColor
                  |L1.1228|
0004cc  f7fffffe          BL       wr_dat_only
0004d0  1e64              SUBS     r4,r4,#1              ;503
0004d2  d5f3              BPL      |L1.1212|
;;;508          }
;;;509        }
;;;510        c++;
0004d4  1cad              ADDS     r5,r5,#2
0004d6  1c76              ADDS     r6,r6,#1              ;502
0004d8  2e18              CMP      r6,#0x18              ;502
0004da  dbee              BLT      |L1.1210|
0004dc  f8cab018          STR      r11,[r10,#0x18]       ;502
                  |L1.1248|
;;;511      }
;;;512      wr_dat_stop();
;;;513    }
0004e0  e8bd9ff0          POP      {r4-r12,pc}
                  |L1.1252|
0004e4  8840              LDRH     r0,[r0,#2]            ;505  ; BackColor
0004e6  e7f1              B        |L1.1228|
;;;514    
                          ENDP

                  GLCD_DisplayChar PROC
;;;523    
;;;524    void GLCD_DisplayChar (unsigned int ln, unsigned int col, unsigned char c) {
0004e8  3a20              SUBS     r2,r2,#0x20
;;;525    
;;;526      c -= 32;
0004ea  b2d2              UXTB     r2,r2
;;;527      GLCD_DrawChar(col * CHAR_W, ln * CHAR_H, (unsigned short *)&Font_24x16[c * CHAR_H]);
0004ec  4bba              LDR      r3,|L1.2008|
0004ee  eb020242          ADD      r2,r2,r2,LSL #1
0004f2  eb031202          ADD      r2,r3,r2,LSL #4
0004f6  eb000040          ADD      r0,r0,r0,LSL #1
0004fa  00c3              LSLS     r3,r0,#3
0004fc  0108              LSLS     r0,r1,#4
0004fe  4619              MOV      r1,r3
000500  e7fe              B        GLCD_DrawChar
;;;528    }
;;;529    
                          ENDP

                  GLCD_DisplayString PROC
;;;538    
;;;539    void GLCD_DisplayString (unsigned int ln, unsigned int col, unsigned char *s) {
000502  b570              PUSH     {r4-r6,lr}
000504  4605              MOV      r5,r0
000506  460e              MOV      r6,r1
000508  4614              MOV      r4,r2
;;;540    
;;;541      GLCD_WindowMax();
00050a  f7fffffe          BL       GLCD_WindowMax
;;;542      while (*s) {
00050e  e005              B        |L1.1308|
                  |L1.1296|
;;;543        GLCD_DisplayChar(ln, col++, *s++);
000510  4631              MOV      r1,r6
000512  1c64              ADDS     r4,r4,#1
000514  1c76              ADDS     r6,r6,#1
000516  4628              MOV      r0,r5
000518  f7fffffe          BL       GLCD_DisplayChar
                  |L1.1308|
00051c  7822              LDRB     r2,[r4,#0]            ;542
00051e  2a00              CMP      r2,#0                 ;542
000520  d1f6              BNE      |L1.1296|
;;;544      }
;;;545    }
000522  e768              B        |L1.1014|
;;;546    
                          ENDP

                  GLCD_ClearLn PROC
;;;553    
;;;554    void GLCD_ClearLn (unsigned int ln) {
000524  b510              PUSH     {r4,lr}
000526  4604              MOV      r4,r0
;;;555    
;;;556      GLCD_WindowMax();
000528  f7fffffe          BL       GLCD_WindowMax
;;;557      GLCD_DisplayString(ln, 0, "                    ");
00052c  4620              MOV      r0,r4
00052e  e8bd4010          POP      {r4,lr}
000532  a2aa              ADR      r2,|L1.2012|
000534  2100              MOVS     r1,#0
000536  e7fe              B        GLCD_DisplayString
;;;558    }
;;;559    
                          ENDP

                  GLCD_Bargraph PROC
;;;568    
;;;569    void GLCD_Bargraph (unsigned int x, unsigned int y, unsigned int w, unsigned int h, unsigned int val) {
000538  e92d5ff0          PUSH     {r4-r12,lr}
00053c  460e              MOV      r6,r1
;;;570      int i,j;
;;;571    
;;;572      x = WIDTH-x-w;
00053e  f5c070a0          RSB      r0,r0,#0x140
000542  1a87              SUBS     r7,r0,r2
;;;573      wr_reg(0x50, y);                      /* Horizontal GRAM Start Address      */
000544  b289              UXTH     r1,r1
000546  4615              MOV      r5,r2                 ;569
000548  4698              MOV      r8,r3                 ;569
00054a  460c              MOV      r4,r1
00054c  2050              MOVS     r0,#0x50
00054e  f8dd9028          LDR      r9,[sp,#0x28]
000552  f7fffffe          BL       wr_reg
;;;574      wr_reg(0x51, y+CHAR_H-1);             /* Horizontal GRAM End   Address (-1) */
000556  3617              ADDS     r6,r6,#0x17
000558  b2b1              UXTH     r1,r6
00055a  2051              MOVS     r0,#0x51
00055c  f7fffffe          BL       wr_reg
;;;575      wr_reg(0x52, x);                      /* Vertical   GRAM Start Address      */
000560  b2b9              UXTH     r1,r7
000562  460e              MOV      r6,r1
000564  2052              MOVS     r0,#0x52
000566  f7fffffe          BL       wr_reg
;;;576      wr_reg(0x53, x+w-1);                  /* Vertical   GRAM End   Address (-1) */
00056a  1978              ADDS     r0,r7,r5
00056c  1e40              SUBS     r0,r0,#1
00056e  b281              UXTH     r1,r0
000570  2053              MOVS     r0,#0x53
000572  f7fffffe          BL       wr_reg
;;;577    
;;;578      val = (val * w) >> 10;                /* Scale value for 24x12 characters   */
000576  fb09f005          MUL      r0,r9,r5
00057a  0a87              LSRS     r7,r0,#10
00057c  4621              MOV      r1,r4
;;;579      wr_reg(0x20, y);
00057e  2020              MOVS     r0,#0x20
000580  f7fffffe          BL       wr_reg
000584  4631              MOV      r1,r6
;;;580      wr_reg(0x21, x);
000586  2021              MOVS     r0,#0x21
000588  f7fffffe          BL       wr_reg
;;;581      LCD_CS(0)
00058c  f8dfa244          LDR      r10,|L1.2004|
000590  f44f0b80          MOV      r11,#0x400000
000594  4654              MOV      r4,r10
000596  f8cab01c          STR      r11,[r10,#0x1c]
;;;582      wr_cmd(0x22);
00059a  2022              MOVS     r0,#0x22
00059c  f7fffffe          BL       wr_cmd
0005a0  f44f0000          MOV      r0,#0x800000
0005a4  61a0              STR      r0,[r4,#0x18]
;;;583      wr_dat_start();
;;;584      for (i = 0; i < h; i++) {
0005a6  2600              MOVS     r6,#0
;;;585        for (j = w-1; j >= 0; j--) {
;;;586          if(j >= val) {
;;;587            wr_dat_only(BackColor);
0005a8  f8df9224          LDR      r9,|L1.2000|
0005ac  e00c              B        |L1.1480|
                  |L1.1454|
0005ae  1e6c              SUBS     r4,r5,#1              ;585
0005b0  d409              BMI      |L1.1478|
                  |L1.1458|
0005b2  42bc              CMP      r4,r7                 ;586
;;;588          } else {
;;;589            wr_dat_only(TextColor);
0005b4  4648              MOV      r0,r9
0005b6  d301              BCC      |L1.1468|
0005b8  8840              LDRH     r0,[r0,#2]            ;587  ; BackColor
0005ba  e000              B        |L1.1470|
                  |L1.1468|
0005bc  8800              LDRH     r0,[r0,#0]  ; TextColor
                  |L1.1470|
0005be  f7fffffe          BL       wr_dat_only
0005c2  1e64              SUBS     r4,r4,#1              ;585
0005c4  d5f5              BPL      |L1.1458|
                  |L1.1478|
0005c6  1c76              ADDS     r6,r6,#1              ;584
                  |L1.1480|
0005c8  4546              CMP      r6,r8                 ;584
0005ca  d3f0              BCC      |L1.1454|
0005cc  f8cab018          STR      r11,[r10,#0x18]       ;584
;;;590          }
;;;591        }
;;;592      }
;;;593      wr_dat_stop();
;;;594    }
0005d0  e786              B        |L1.1248|
;;;595    
                          ENDP

                  GLCD_Bitmap PROC
;;;608    
;;;609    void GLCD_Bitmap (unsigned int x, unsigned int y, unsigned int w, unsigned int h, unsigned char *bitmap) {
0005d2  e92d47f0          PUSH     {r4-r10,lr}
0005d6  460f              MOV      r7,r1
;;;610      unsigned int    i, j;
;;;611      unsigned short *bitmap_ptr = (unsigned short *)bitmap;
;;;612    
;;;613      x = WIDTH-x-w;
0005d8  f5c070a0          RSB      r0,r0,#0x140
0005dc  1a86              SUBS     r6,r0,r2
;;;614      wr_reg(0x50, y);                      /* Horizontal GRAM Start Address      */
0005de  b289              UXTH     r1,r1
0005e0  4614              MOV      r4,r2                 ;609
0005e2  4698              MOV      r8,r3                 ;609
0005e4  4689              MOV      r9,r1
0005e6  2050              MOVS     r0,#0x50
0005e8  9d08              LDR      r5,[sp,#0x20]
0005ea  f7fffffe          BL       wr_reg
;;;615      wr_reg(0x51, y+h-1);                  /* Horizontal GRAM End   Address (-1) */
0005ee  eb070008          ADD      r0,r7,r8
0005f2  1e40              SUBS     r0,r0,#1
0005f4  b281              UXTH     r1,r0
0005f6  2051              MOVS     r0,#0x51
0005f8  f7fffffe          BL       wr_reg
;;;616      wr_reg(0x52, x);                      /* Vertical   GRAM Start Address      */
0005fc  b2b1              UXTH     r1,r6
0005fe  460f              MOV      r7,r1
000600  2052              MOVS     r0,#0x52
000602  f7fffffe          BL       wr_reg
;;;617      wr_reg(0x53, x+w-1);                  /* Vertical   GRAM End   Address (-1) */
000606  1930              ADDS     r0,r6,r4
000608  1e40              SUBS     r0,r0,#1
00060a  b281              UXTH     r1,r0
00060c  2053              MOVS     r0,#0x53
00060e  f7fffffe          BL       wr_reg
000612  4649              MOV      r1,r9
;;;618    
;;;619      wr_reg(0x20, y);
000614  2020              MOVS     r0,#0x20
000616  f7fffffe          BL       wr_reg
00061a  4639              MOV      r1,r7
;;;620      wr_reg(0x21, x);
00061c  2021              MOVS     r0,#0x21
00061e  f7fffffe          BL       wr_reg
;;;621      LCD_CS(0)
000622  f8df91b0          LDR      r9,|L1.2004|
000626  f44f0a80          MOV      r10,#0x400000
00062a  464e              MOV      r6,r9
00062c  f8c9a01c          STR      r10,[r9,#0x1c]
;;;622      wr_cmd(0x22);
000630  2022              MOVS     r0,#0x22
000632  f7fffffe          BL       wr_cmd
000636  f44f0000          MOV      r0,#0x800000
00063a  61b0              STR      r0,[r6,#0x18]
;;;623      wr_dat_start();
;;;624      for (j = 0; j < h; j++) {
00063c  2600              MOVS     r6,#0
00063e  e010              B        |L1.1634|
                  |L1.1600|
;;;625        bitmap_ptr += w-1;
000640  eb050544          ADD      r5,r5,r4,LSL #1
000644  1ead              SUBS     r5,r5,#2
;;;626        for (i = 0; i < w; i++) {
000646  2700              MOVS     r7,#0
000648  e005              B        |L1.1622|
;;;627          wr_dat_only(*bitmap_ptr--);
00064a  bf00              NOP      
                  |L1.1612|
00064c  f8350902          LDRH     r0,[r5],#-2
000650  f7fffffe          BL       wr_dat_only
000654  1c7f              ADDS     r7,r7,#1              ;626
                  |L1.1622|
000656  42a7              CMP      r7,r4                 ;626
000658  d3f8              BCC      |L1.1612|
;;;628        }
;;;629        bitmap_ptr += w+1;
00065a  eb050544          ADD      r5,r5,r4,LSL #1
00065e  1cad              ADDS     r5,r5,#2
000660  1c76              ADDS     r6,r6,#1              ;624
                  |L1.1634|
000662  4546              CMP      r6,r8                 ;624
000664  d3ec              BCC      |L1.1600|
000666  f8c9a018          STR      r10,[r9,#0x18]        ;624
                  |L1.1642|
;;;630      }
;;;631      wr_dat_stop();
;;;632    }
00066a  e8bd87f0          POP      {r4-r10,pc}
;;;633    
                          ENDP

                  GLCD_Bmp PROC
;;;646    
;;;647    void GLCD_Bmp (unsigned int x, unsigned int y, unsigned int w, unsigned int h, unsigned char *bmp) {
00066e  e92d47f0          PUSH     {r4-r10,lr}
000672  460f              MOV      r7,r1
;;;648      unsigned int    i, j;
;;;649      unsigned short *bitmap_ptr = (unsigned short *)bmp;
;;;650    
;;;651      x = WIDTH-x-w;
000674  f5c070a0          RSB      r0,r0,#0x140
000678  1a85              SUBS     r5,r0,r2
;;;652      wr_reg(0x50, y);                      /* Horizontal GRAM Start Address      */
00067a  b289              UXTH     r1,r1
00067c  4614              MOV      r4,r2                 ;647
00067e  461e              MOV      r6,r3                 ;647
000680  4689              MOV      r9,r1
000682  2050              MOVS     r0,#0x50
000684  f8dd8020          LDR      r8,[sp,#0x20]
000688  f7fffffe          BL       wr_reg
;;;653      wr_reg(0x51, y+h-1);                  /* Horizontal GRAM End   Address (-1) */
00068c  19b8              ADDS     r0,r7,r6
00068e  1e40              SUBS     r0,r0,#1
000690  b281              UXTH     r1,r0
000692  2051              MOVS     r0,#0x51
000694  f7fffffe          BL       wr_reg
;;;654      wr_reg(0x52, x);                      /* Vertical   GRAM Start Address      */
000698  b2a9              UXTH     r1,r5
00069a  460f              MOV      r7,r1
00069c  2052              MOVS     r0,#0x52
00069e  f7fffffe          BL       wr_reg
;;;655      wr_reg(0x53, x+w-1);                  /* Vertical   GRAM End   Address (-1) */
0006a2  1928              ADDS     r0,r5,r4
0006a4  1e40              SUBS     r0,r0,#1
0006a6  b281              UXTH     r1,r0
0006a8  2053              MOVS     r0,#0x53
0006aa  f7fffffe          BL       wr_reg
0006ae  4649              MOV      r1,r9
;;;656    
;;;657      wr_reg(0x20, y);
0006b0  2020              MOVS     r0,#0x20
0006b2  f7fffffe          BL       wr_reg
0006b6  4639              MOV      r1,r7
;;;658      wr_reg(0x21, x);
0006b8  2021              MOVS     r0,#0x21
0006ba  f7fffffe          BL       wr_reg
;;;659      LCD_CS(0)
0006be  f8df9114          LDR      r9,|L1.2004|
0006c2  f44f0a80          MOV      r10,#0x400000
0006c6  464d              MOV      r5,r9
0006c8  f8c9a01c          STR      r10,[r9,#0x1c]
;;;660      wr_cmd(0x22);
0006cc  2022              MOVS     r0,#0x22
0006ce  f7fffffe          BL       wr_cmd
0006d2  f44f0000          MOV      r0,#0x800000
0006d6  61a8              STR      r0,[r5,#0x18]
;;;661      wr_dat_start();
;;;662      bitmap_ptr += (h*w)-1;
0006d8  fb06f004          MUL      r0,r6,r4
0006dc  eb080540          ADD      r5,r8,r0,LSL #1
0006e0  1ead              SUBS     r5,r5,#2
;;;663      for (j = 0; j < h; j++) {
0006e2  2000              MOVS     r0,#0
0006e4  e00b              B        |L1.1790|
                  |L1.1766|
;;;664        for (i = 0; i < w; i++) {
0006e6  2700              MOVS     r7,#0
0006e8  e005              B        |L1.1782|
;;;665          wr_dat_only(*bitmap_ptr--);
0006ea  bf00              NOP      
                  |L1.1772|
0006ec  f8350902          LDRH     r0,[r5],#-2
0006f0  f7fffffe          BL       wr_dat_only
0006f4  1c7f              ADDS     r7,r7,#1              ;664
                  |L1.1782|
0006f6  42a7              CMP      r7,r4                 ;664
0006f8  d3f8              BCC      |L1.1772|
0006fa  f1080001          ADD      r0,r8,#1              ;663
                  |L1.1790|
0006fe  4680              MOV      r8,r0                 ;663
000700  42b0              CMP      r0,r6                 ;663
000702  d3f0              BCC      |L1.1766|
000704  f8c9a018          STR      r10,[r9,#0x18]        ;663
;;;666        }
;;;667      }
;;;668      wr_dat_stop();
;;;669    }
000708  e7af              B        |L1.1642|
;;;670    
                          ENDP

                  delay PROC
;;;83     
;;;84     static void delay (int cnt) {
00070a  0480              LSLS     r0,r0,#18
                  |L1.1804|
;;;85     
;;;86       cnt <<= DELAY_2N;
;;;87       while (cnt--);
00070c  1e40              SUBS     r0,r0,#1
00070e  d2fd              BCS      |L1.1804|
;;;88     }
000710  4770              BX       lr
;;;89     
                          ENDP

                  wr_cmd PROC
;;;145    
;;;146    static __inline void wr_cmd (unsigned char c) {
000712  b570              PUSH     {r4-r6,lr}
;;;147    
;;;148      LCD_RS(0)
000714  4c2f              LDR      r4,|L1.2004|
000716  f44f0100          MOV      r1,#0x800000
00071a  61e1              STR      r1,[r4,#0x1c]
;;;149      LCD_RD(1)
00071c  0089              LSLS     r1,r1,#2
00071e  61a1              STR      r1,[r4,#0x18]
;;;150      lcd_send(c);
000720  f7fffffe          BL       lcd_send
;;;151      LCD_WR(0)
000724  f04f7580          MOV      r5,#0x1000000
000728  61e5              STR      r5,[r4,#0x1c]
;;;152      wait();
00072a  f7fffffe          BL       wait
;;;153      LCD_WR(1)
00072e  61a5              STR      r5,[r4,#0x18]
;;;154    }
000730  e661              B        |L1.1014|
;;;155    
                          ENDP

                  wr_dat PROC
;;;162    
;;;163    static __inline void wr_dat (unsigned short c) {
000732  b570              PUSH     {r4-r6,lr}
;;;164    
;;;165      LCD_RS(1)
000734  4c27              LDR      r4,|L1.2004|
000736  f44f0100          MOV      r1,#0x800000
00073a  61a1              STR      r1,[r4,#0x18]
;;;166      LCD_RD(1)
00073c  0089              LSLS     r1,r1,#2
00073e  61a1              STR      r1,[r4,#0x18]
;;;167      lcd_send(c);
000740  f7fffffe          BL       lcd_send
;;;168      LCD_WR(0)
000744  f04f7580          MOV      r5,#0x1000000
000748  61e5              STR      r5,[r4,#0x1c]
;;;169      wait();
00074a  f7fffffe          BL       wait
;;;170      LCD_WR(1)
00074e  61a5              STR      r5,[r4,#0x18]
;;;171    }
000750  e651              B        |L1.1014|
;;;172    
                          ENDP

                  wr_dat_only PROC
;;;219    
;;;220    static __inline void wr_dat_only (unsigned short c) {
000752  b570              PUSH     {r4-r6,lr}
;;;221    
;;;222      lcd_send(c);
000754  f7fffffe          BL       lcd_send
;;;223      LCD_WR(0)
000758  4c1e              LDR      r4,|L1.2004|
00075a  f04f7580          MOV      r5,#0x1000000
00075e  61e5              STR      r5,[r4,#0x1c]
;;;224      wait();
000760  f7fffffe          BL       wait
;;;225      LCD_WR(1)
000764  61a5              STR      r5,[r4,#0x18]
;;;226    }
000766  e646              B        |L1.1014|
;;;227    
                          ENDP

                  wr_reg PROC
;;;234    
;;;235    static __inline void wr_reg (unsigned char reg, unsigned short val) {
000768  b570              PUSH     {r4-r6,lr}
;;;236    
;;;237      LCD_CS(0)
00076a  4d1a              LDR      r5,|L1.2004|
00076c  f44f0480          MOV      r4,#0x400000
000770  460e              MOV      r6,r1                 ;235
000772  61ec              STR      r4,[r5,#0x1c]
;;;238      wr_cmd(reg);
000774  f7fffffe          BL       wr_cmd
;;;239      wr_dat(val);
000778  4630              MOV      r0,r6
00077a  f7fffffe          BL       wr_dat
;;;240      LCD_CS(1)
00077e  61ac              STR      r4,[r5,#0x18]
;;;241    }
000780  e639              B        |L1.1014|
;;;242    
                          ENDP

                  rd_reg PROC
;;;249    
;;;250    static unsigned short rd_reg (unsigned short reg) {
000782  b570              PUSH     {r4-r6,lr}
;;;251      unsigned short val = 0;
;;;252    
;;;253      LCD_CS(0)
000784  4c13              LDR      r4,|L1.2004|
000786  f44f0580          MOV      r5,#0x400000
00078a  61e5              STR      r5,[r4,#0x1c]
;;;254      wr_cmd(reg);
00078c  b2c0              UXTB     r0,r0
00078e  f7fffffe          BL       wr_cmd
000792  0068              LSLS     r0,r5,#1
000794  61a0              STR      r0,[r4,#0x18]
000796  0040              LSLS     r0,r0,#1
000798  61a0              STR      r0,[r4,#0x18]
00079a  0041              LSLS     r1,r0,#1
00079c  61e1              STR      r1,[r4,#0x1c]
00079e  6c20              LDR      r0,[r4,#0x40]
0007a0  f02000ff          BIC      r0,r0,#0xff
0007a4  6420              STR      r0,[r4,#0x40]
0007a6  110a              ASRS     r2,r1,#4
0007a8  61e2              STR      r2,[r4,#0x1c]
0007aa  118b              ASRS     r3,r1,#6
0007ac  61e3              STR      r3,[r4,#0x1c]
0007ae  2032              MOVS     r0,#0x32
                  |L1.1968|
0007b0  1e40              SUBS     r0,r0,#1
0007b2  d2fd              BCS      |L1.1968|
0007b4  6d60              LDR      r0,[r4,#0x54]
0007b6  61a3              STR      r3,[r4,#0x18]
0007b8  b2c6              UXTB     r6,r0
0007ba  2032              MOVS     r0,#0x32
                  |L1.1980|
0007bc  1e40              SUBS     r0,r0,#1
0007be  d2fd              BCS      |L1.1980|
0007c0  6d60              LDR      r0,[r4,#0x54]
0007c2  61a2              STR      r2,[r4,#0x18]
0007c4  f366201f          BFI      r0,r6,#8,#24
0007c8  b280              UXTH     r0,r0
0007ca  61a1              STR      r1,[r4,#0x18]
;;;255      val = rd_dat(); 
;;;256      LCD_CS(1)
0007cc  61a5              STR      r5,[r4,#0x18]
;;;257      return (val);
;;;258    }
0007ce  e612              B        |L1.1014|
;;;259    
                          ENDP

                  |L1.2000|
                          DCD      ||.data||
                  |L1.2004|
                          DCD      0x2009c000
                  |L1.2008|
                          DCD      ||.constdata||
                  |L1.2012|
0007dc  20202020          DCB      "                    ",0
0007e0  20202020
0007e4  20202020
0007e8  20202020
0007ec  20202020
0007f0  00      
0007f1  00                DCB      0
0007f2  00                DCB      0
0007f3  00                DCB      0

                          AREA ||.constdata||, DATA, READONLY, ALIGN=1

                  Font_24x16
000000  00000000          DCW      0x0000,0x0000
000004  00000000          DCW      0x0000,0x0000
000008  00000000          DCW      0x0000,0x0000
00000c  00000000          DCW      0x0000,0x0000
000010  00000000          DCW      0x0000,0x0000
000014  00000000          DCW      0x0000,0x0000
000018  00000000          DCW      0x0000,0x0000
00001c  00000000          DCW      0x0000,0x0000
000020  00000000          DCW      0x0000,0x0000
000024  00000000          DCW      0x0000,0x0000
000028  00000000          DCW      0x0000,0x0000
00002c  00000000          DCW      0x0000,0x0000
000030  00000180          DCW      0x0000,0x0180
000034  01800180          DCW      0x0180,0x0180
000038  01800180          DCW      0x0180,0x0180
00003c  01800180          DCW      0x0180,0x0180
000040  01800180          DCW      0x0180,0x0180
000044  01800180          DCW      0x0180,0x0180
000048  01800180          DCW      0x0180,0x0180
00004c  00000000          DCW      0x0000,0x0000
000050  01800180          DCW      0x0180,0x0180
000054  00000000          DCW      0x0000,0x0000
000058  00000000          DCW      0x0000,0x0000
00005c  00000000          DCW      0x0000,0x0000
000060  00000000          DCW      0x0000,0x0000
000064  00cc00cc          DCW      0x00cc,0x00cc
000068  00cc00cc          DCW      0x00cc,0x00cc
00006c  00cc00cc          DCW      0x00cc,0x00cc
000070  00000000          DCW      0x0000,0x0000
000074  00000000          DCW      0x0000,0x0000
000078  00000000          DCW      0x0000,0x0000
00007c  00000000          DCW      0x0000,0x0000
000080  00000000          DCW      0x0000,0x0000
000084  00000000          DCW      0x0000,0x0000
000088  00000000          DCW      0x0000,0x0000
00008c  00000000          DCW      0x0000,0x0000
000090  00000000          DCW      0x0000,0x0000
000094  00000000          DCW      0x0000,0x0000
000098  00000000          DCW      0x0000,0x0000
00009c  0c600c60          DCW      0x0c60,0x0c60
0000a0  0c600630          DCW      0x0c60,0x0630
0000a4  06301ffe          DCW      0x0630,0x1ffe
0000a8  1ffe0630          DCW      0x1ffe,0x0630
0000ac  07380318          DCW      0x0738,0x0318
0000b0  1ffe1ffe          DCW      0x1ffe,0x1ffe
0000b4  03180318          DCW      0x0318,0x0318
0000b8  018c018c          DCW      0x018c,0x018c
0000bc  018c0000          DCW      0x018c,0x0000
0000c0  00000080          DCW      0x0000,0x0080
0000c4  03e00ff8          DCW      0x03e0,0x0ff8
0000c8  0e9c1c8c          DCW      0x0e9c,0x1c8c
0000cc  188c008c          DCW      0x188c,0x008c
0000d0  009801f8          DCW      0x0098,0x01f8
0000d4  07e00e80          DCW      0x07e0,0x0e80
0000d8  1c80188c          DCW      0x1c80,0x188c
0000dc  188c189c          DCW      0x188c,0x189c
0000e0  0cb80ff0          DCW      0x0cb8,0x0ff0
0000e4  03e00080          DCW      0x03e0,0x0080
0000e8  00800000          DCW      0x0080,0x0000
0000ec  00000000          DCW      0x0000,0x0000
0000f0  00000000          DCW      0x0000,0x0000
0000f4  0000180e          DCW      0x0000,0x180e
0000f8  0c1b0c11          DCW      0x0c1b,0x0c11
0000fc  06110611          DCW      0x0611,0x0611
000100  03110311          DCW      0x0311,0x0311
000104  019b018e          DCW      0x019b,0x018e
000108  38c06cc0          DCW      0x38c0,0x6cc0
00010c  44604460          DCW      0x4460,0x4460
000110  44304430          DCW      0x4430,0x4430
000114  44186c18          DCW      0x4418,0x6c18
000118  380c0000          DCW      0x380c,0x0000
00011c  00000000          DCW      0x0000,0x0000
000120  000001e0          DCW      0x0000,0x01e0
000124  03f00738          DCW      0x03f0,0x0738
000128  06180618          DCW      0x0618,0x0618
00012c  033001f0          DCW      0x0330,0x01f0
000130  00f000f8          DCW      0x00f0,0x00f8
000134  319c330e          DCW      0x319c,0x330e
000138  1e061c06          DCW      0x1e06,0x1c06
00013c  1c063f06          DCW      0x1c06,0x3f06
000140  73fc21f0          DCW      0x73fc,0x21f0
000144  00000000          DCW      0x0000,0x0000
000148  00000000          DCW      0x0000,0x0000
00014c  00000000          DCW      0x0000,0x0000
000150  00000000          DCW      0x0000,0x0000
000154  000c000c          DCW      0x000c,0x000c
000158  000c000c          DCW      0x000c,0x000c
00015c  000c000c          DCW      0x000c,0x000c
000160  00000000          DCW      0x0000,0x0000
000164  00000000          DCW      0x0000,0x0000
000168  00000000          DCW      0x0000,0x0000
00016c  00000000          DCW      0x0000,0x0000
000170  00000000          DCW      0x0000,0x0000
000174  00000000          DCW      0x0000,0x0000
000178  00000000          DCW      0x0000,0x0000
00017c  00000000          DCW      0x0000,0x0000
000180  00000200          DCW      0x0000,0x0200
000184  03000180          DCW      0x0300,0x0180
000188  00c000c0          DCW      0x00c0,0x00c0
00018c  00600060          DCW      0x0060,0x0060
000190  00300030          DCW      0x0030,0x0030
000194  00300030          DCW      0x0030,0x0030
000198  00300030          DCW      0x0030,0x0030
00019c  00300030          DCW      0x0030,0x0030
0001a0  00600060          DCW      0x0060,0x0060
0001a4  00c000c0          DCW      0x00c0,0x00c0
0001a8  01800300          DCW      0x0180,0x0300
0001ac  02000000          DCW      0x0200,0x0000
0001b0  00000020          DCW      0x0000,0x0020
0001b4  006000c0          DCW      0x0060,0x00c0
0001b8  01800180          DCW      0x0180,0x0180
0001bc  03000300          DCW      0x0300,0x0300
0001c0  06000600          DCW      0x0600,0x0600
0001c4  06000600          DCW      0x0600,0x0600
0001c8  06000600          DCW      0x0600,0x0600
0001cc  06000600          DCW      0x0600,0x0600
0001d0  03000300          DCW      0x0300,0x0300
0001d4  01800180          DCW      0x0180,0x0180
0001d8  00c00060          DCW      0x00c0,0x0060
0001dc  00200000          DCW      0x0020,0x0000
0001e0  00000000          DCW      0x0000,0x0000
0001e4  00000000          DCW      0x0000,0x0000
0001e8  00000000          DCW      0x0000,0x0000
0001ec  00c000c0          DCW      0x00c0,0x00c0
0001f0  06d807f8          DCW      0x06d8,0x07f8
0001f4  01e00330          DCW      0x01e0,0x0330
0001f8  07380000          DCW      0x0738,0x0000
0001fc  00000000          DCW      0x0000,0x0000
000200  00000000          DCW      0x0000,0x0000
000204  00000000          DCW      0x0000,0x0000
000208  00000000          DCW      0x0000,0x0000
00020c  00000000          DCW      0x0000,0x0000
000210  00000000          DCW      0x0000,0x0000
000214  00000000          DCW      0x0000,0x0000
000218  00000000          DCW      0x0000,0x0000
00021c  01800180          DCW      0x0180,0x0180
000220  01800180          DCW      0x0180,0x0180
000224  01803ffc          DCW      0x0180,0x3ffc
000228  3ffc0180          DCW      0x3ffc,0x0180
00022c  01800180          DCW      0x0180,0x0180
000230  01800180          DCW      0x0180,0x0180
000234  00000000          DCW      0x0000,0x0000
000238  00000000          DCW      0x0000,0x0000
00023c  00000000          DCW      0x0000,0x0000
000240  00000000          DCW      0x0000,0x0000
000244  00000000          DCW      0x0000,0x0000
000248  00000000          DCW      0x0000,0x0000
00024c  00000000          DCW      0x0000,0x0000
000250  00000000          DCW      0x0000,0x0000
000254  00000000          DCW      0x0000,0x0000
000258  00000000          DCW      0x0000,0x0000
00025c  00000000          DCW      0x0000,0x0000
000260  00000180          DCW      0x0000,0x0180
000264  01800100          DCW      0x0180,0x0100
000268  01000080          DCW      0x0100,0x0080
00026c  00000000          DCW      0x0000,0x0000
000270  00000000          DCW      0x0000,0x0000
000274  00000000          DCW      0x0000,0x0000
000278  00000000          DCW      0x0000,0x0000
00027c  00000000          DCW      0x0000,0x0000
000280  00000000          DCW      0x0000,0x0000
000284  00000000          DCW      0x0000,0x0000
000288  07e007e0          DCW      0x07e0,0x07e0
00028c  00000000          DCW      0x0000,0x0000
000290  00000000          DCW      0x0000,0x0000
000294  00000000          DCW      0x0000,0x0000
000298  00000000          DCW      0x0000,0x0000
00029c  00000000          DCW      0x0000,0x0000
0002a0  00000000          DCW      0x0000,0x0000
0002a4  00000000          DCW      0x0000,0x0000
0002a8  00000000          DCW      0x0000,0x0000
0002ac  00000000          DCW      0x0000,0x0000
0002b0  00000000          DCW      0x0000,0x0000
0002b4  00000000          DCW      0x0000,0x0000
0002b8  00000000          DCW      0x0000,0x0000
0002bc  00000000          DCW      0x0000,0x0000
0002c0  000000c0          DCW      0x0000,0x00c0
0002c4  00c00000          DCW      0x00c0,0x0000
0002c8  00000000          DCW      0x0000,0x0000
0002cc  00000000          DCW      0x0000,0x0000
0002d0  00000c00          DCW      0x0000,0x0c00
0002d4  0c000600          DCW      0x0c00,0x0600
0002d8  06000600          DCW      0x0600,0x0600
0002dc  03000300          DCW      0x0300,0x0300
0002e0  03000380          DCW      0x0300,0x0380
0002e4  01800180          DCW      0x0180,0x0180
0002e8  018000c0          DCW      0x0180,0x00c0
0002ec  00c000c0          DCW      0x00c0,0x00c0
0002f0  00600060          DCW      0x0060,0x0060
0002f4  00000000          DCW      0x0000,0x0000
0002f8  00000000          DCW      0x0000,0x0000
0002fc  00000000          DCW      0x0000,0x0000
000300  000003e0          DCW      0x0000,0x03e0
000304  07f00e38          DCW      0x07f0,0x0e38
000308  0c18180c          DCW      0x0c18,0x180c
00030c  180c180c          DCW      0x180c,0x180c
000310  180c180c          DCW      0x180c,0x180c
000314  180c180c          DCW      0x180c,0x180c
000318  180c180c          DCW      0x180c,0x180c
00031c  0c180e38          DCW      0x0c18,0x0e38
000320  07f003e0          DCW      0x07f0,0x03e0
000324  00000000          DCW      0x0000,0x0000
000328  00000000          DCW      0x0000,0x0000
00032c  00000000          DCW      0x0000,0x0000
000330  00000100          DCW      0x0000,0x0100
000334  018001c0          DCW      0x0180,0x01c0
000338  01f00198          DCW      0x01f0,0x0198
00033c  01880180          DCW      0x0188,0x0180
000340  01800180          DCW      0x0180,0x0180
000344  01800180          DCW      0x0180,0x0180
000348  01800180          DCW      0x0180,0x0180
00034c  01800180          DCW      0x0180,0x0180
000350  01800180          DCW      0x0180,0x0180
000354  00000000          DCW      0x0000,0x0000
000358  00000000          DCW      0x0000,0x0000
00035c  00000000          DCW      0x0000,0x0000
000360  000003e0          DCW      0x0000,0x03e0
000364  0ff80c18          DCW      0x0ff8,0x0c18
000368  180c180c          DCW      0x180c,0x180c
00036c  18001800          DCW      0x1800,0x1800
000370  0c000600          DCW      0x0c00,0x0600
000374  03000180          DCW      0x0300,0x0180
000378  00c00060          DCW      0x00c0,0x0060
00037c  00300018          DCW      0x0030,0x0018
000380  1ffc1ffc          DCW      0x1ffc,0x1ffc
000384  00000000          DCW      0x0000,0x0000
000388  00000000          DCW      0x0000,0x0000
00038c  00000000          DCW      0x0000,0x0000
000390  000001e0          DCW      0x0000,0x01e0
000394  07f80e18          DCW      0x07f8,0x0e18
000398  0c0c0c0c          DCW      0x0c0c,0x0c0c
00039c  0c000600          DCW      0x0c00,0x0600
0003a0  03c007c0          DCW      0x03c0,0x07c0
0003a4  0c001800          DCW      0x0c00,0x1800
0003a8  1800180c          DCW      0x1800,0x180c
0003ac  180c0c18          DCW      0x180c,0x0c18
0003b0  07f803e0          DCW      0x07f8,0x03e0
0003b4  00000000          DCW      0x0000,0x0000
0003b8  00000000          DCW      0x0000,0x0000
0003bc  00000000          DCW      0x0000,0x0000
0003c0  00000c00          DCW      0x0000,0x0c00
0003c4  0e000f00          DCW      0x0e00,0x0f00
0003c8  0f000d80          DCW      0x0f00,0x0d80
0003cc  0cc00c60          DCW      0x0cc0,0x0c60
0003d0  0c600c30          DCW      0x0c60,0x0c30
0003d4  0c180c0c          DCW      0x0c18,0x0c0c
0003d8  3ffc3ffc          DCW      0x3ffc,0x3ffc
0003dc  0c000c00          DCW      0x0c00,0x0c00
0003e0  0c000c00          DCW      0x0c00,0x0c00
0003e4  00000000          DCW      0x0000,0x0000
0003e8  00000000          DCW      0x0000,0x0000
0003ec  00000000          DCW      0x0000,0x0000
0003f0  00000ff8          DCW      0x0000,0x0ff8
0003f4  0ff80018          DCW      0x0ff8,0x0018
0003f8  0018000c          DCW      0x0018,0x000c
0003fc  03ec07fc          DCW      0x03ec,0x07fc
000400  0e1c1c00          DCW      0x0e1c,0x1c00
000404  18001800          DCW      0x1800,0x1800
000408  1800180c          DCW      0x1800,0x180c
00040c  0c1c0e18          DCW      0x0c1c,0x0e18
000410  07f803e0          DCW      0x07f8,0x03e0
000414  00000000          DCW      0x0000,0x0000
000418  00000000          DCW      0x0000,0x0000
00041c  00000000          DCW      0x0000,0x0000
000420  000007c0          DCW      0x0000,0x07c0
000424  0ff01c38          DCW      0x0ff0,0x1c38
000428  18180018          DCW      0x1818,0x0018
00042c  000c03cc          DCW      0x000c,0x03cc
000430  0fec0e3c          DCW      0x0fec,0x0e3c
000434  1c1c180c          DCW      0x1c1c,0x180c
000438  180c180c          DCW      0x180c,0x180c
00043c  1c180e38          DCW      0x1c18,0x0e38
000440  07f003e0          DCW      0x07f0,0x03e0
000444  00000000          DCW      0x0000,0x0000
000448  00000000          DCW      0x0000,0x0000
00044c  00000000          DCW      0x0000,0x0000
000450  00001ffc          DCW      0x0000,0x1ffc
000454  1ffc0c00          DCW      0x1ffc,0x0c00
000458  06000600          DCW      0x0600,0x0600
00045c  03000380          DCW      0x0300,0x0380
000460  018001c0          DCW      0x0180,0x01c0
000464  00c000e0          DCW      0x00c0,0x00e0
000468  00600060          DCW      0x0060,0x0060
00046c  00700030          DCW      0x0070,0x0030
000470  00300030          DCW      0x0030,0x0030
000474  00000000          DCW      0x0000,0x0000
000478  00000000          DCW      0x0000,0x0000
00047c  00000000          DCW      0x0000,0x0000
000480  000003e0          DCW      0x0000,0x03e0
000484  07f00e38          DCW      0x07f0,0x0e38
000488  0c180c18          DCW      0x0c18,0x0c18
00048c  0c180638          DCW      0x0c18,0x0638
000490  07f007f0          DCW      0x07f0,0x07f0
000494  0c18180c          DCW      0x0c18,0x180c
000498  180c180c          DCW      0x180c,0x180c
00049c  180c0c38          DCW      0x180c,0x0c38
0004a0  0ff803e0          DCW      0x0ff8,0x03e0
0004a4  00000000          DCW      0x0000,0x0000
0004a8  00000000          DCW      0x0000,0x0000
0004ac  00000000          DCW      0x0000,0x0000
0004b0  000003e0          DCW      0x0000,0x03e0
0004b4  07f00e38          DCW      0x07f0,0x0e38
0004b8  0c1c180c          DCW      0x0c1c,0x180c
0004bc  180c180c          DCW      0x180c,0x180c
0004c0  1c1c1e38          DCW      0x1c1c,0x1e38
0004c4  1bf819e0          DCW      0x1bf8,0x19e0
0004c8  18000c00          DCW      0x1800,0x0c00
0004cc  0c000e1c          DCW      0x0c00,0x0e1c
0004d0  07f801f0          DCW      0x07f8,0x01f0
0004d4  00000000          DCW      0x0000,0x0000
0004d8  00000000          DCW      0x0000,0x0000
0004dc  00000000          DCW      0x0000,0x0000
0004e0  00000000          DCW      0x0000,0x0000
0004e4  00000000          DCW      0x0000,0x0000
0004e8  00000000          DCW      0x0000,0x0000
0004ec  01800180          DCW      0x0180,0x0180
0004f0  00000000          DCW      0x0000,0x0000
0004f4  00000000          DCW      0x0000,0x0000
0004f8  00000000          DCW      0x0000,0x0000
0004fc  00000000          DCW      0x0000,0x0000
000500  01800180          DCW      0x0180,0x0180
000504  00000000          DCW      0x0000,0x0000
000508  00000000          DCW      0x0000,0x0000
00050c  00000000          DCW      0x0000,0x0000
000510  00000000          DCW      0x0000,0x0000
000514  00000000          DCW      0x0000,0x0000
000518  00000000          DCW      0x0000,0x0000
00051c  01800180          DCW      0x0180,0x0180
000520  00000000          DCW      0x0000,0x0000
000524  00000000          DCW      0x0000,0x0000
000528  00000000          DCW      0x0000,0x0000
00052c  00000000          DCW      0x0000,0x0000
000530  01800180          DCW      0x0180,0x0180
000534  01000100          DCW      0x0100,0x0100
000538  00800000          DCW      0x0080,0x0000
00053c  00000000          DCW      0x0000,0x0000
000540  00000000          DCW      0x0000,0x0000
000544  00000000          DCW      0x0000,0x0000
000548  00000000          DCW      0x0000,0x0000
00054c  00000000          DCW      0x0000,0x0000
000550  10001c00          DCW      0x1000,0x1c00
000554  0f8003e0          DCW      0x0f80,0x03e0
000558  00f80018          DCW      0x00f8,0x0018
00055c  00f803e0          DCW      0x00f8,0x03e0
000560  0f801c00          DCW      0x0f80,0x1c00
000564  10000000          DCW      0x1000,0x0000
000568  00000000          DCW      0x0000,0x0000
00056c  00000000          DCW      0x0000,0x0000
000570  00000000          DCW      0x0000,0x0000
000574  00000000          DCW      0x0000,0x0000
000578  00000000          DCW      0x0000,0x0000
00057c  00000000          DCW      0x0000,0x0000
000580  1ff80000          DCW      0x1ff8,0x0000
000584  00000000          DCW      0x0000,0x0000
000588  1ff80000          DCW      0x1ff8,0x0000
00058c  00000000          DCW      0x0000,0x0000
000590  00000000          DCW      0x0000,0x0000
000594  00000000          DCW      0x0000,0x0000
000598  00000000          DCW      0x0000,0x0000
00059c  00000000          DCW      0x0000,0x0000
0005a0  00000000          DCW      0x0000,0x0000
0005a4  00000000          DCW      0x0000,0x0000
0005a8  00000000          DCW      0x0000,0x0000
0005ac  00000000          DCW      0x0000,0x0000
0005b0  00080038          DCW      0x0008,0x0038
0005b4  01f007c0          DCW      0x01f0,0x07c0
0005b8  1f001800          DCW      0x1f00,0x1800
0005bc  1f0007c0          DCW      0x1f00,0x07c0
0005c0  01f00038          DCW      0x01f0,0x0038
0005c4  00080000          DCW      0x0008,0x0000
0005c8  00000000          DCW      0x0000,0x0000
0005cc  00000000          DCW      0x0000,0x0000
0005d0  000003e0          DCW      0x0000,0x03e0
0005d4  0ff80c18          DCW      0x0ff8,0x0c18
0005d8  180c180c          DCW      0x180c,0x180c
0005dc  18000c00          DCW      0x1800,0x0c00
0005e0  06000300          DCW      0x0600,0x0300
0005e4  018000c0          DCW      0x0180,0x00c0
0005e8  00c000c0          DCW      0x00c0,0x00c0
0005ec  00000000          DCW      0x0000,0x0000
0005f0  00c000c0          DCW      0x00c0,0x00c0
0005f4  00000000          DCW      0x0000,0x0000
0005f8  00000000          DCW      0x0000,0x0000
0005fc  00000000          DCW      0x0000,0x0000
000600  00000000          DCW      0x0000,0x0000
000604  07e01818          DCW      0x07e0,0x1818
000608  200429c2          DCW      0x2004,0x29c2
00060c  4a224411          DCW      0x4a22,0x4411
000610  44094409          DCW      0x4409,0x4409
000614  44092209          DCW      0x4409,0x2209
000618  13110ce2          DCW      0x1311,0x0ce2
00061c  40022004          DCW      0x4002,0x2004
000620  181807e0          DCW      0x1818,0x07e0
000624  00000000          DCW      0x0000,0x0000
000628  00000000          DCW      0x0000,0x0000
00062c  00000000          DCW      0x0000,0x0000
000630  00000380          DCW      0x0000,0x0380
000634  038006c0          DCW      0x0380,0x06c0
000638  06c006c0          DCW      0x06c0,0x06c0
00063c  0c600c60          DCW      0x0c60,0x0c60
000640  18301830          DCW      0x1830,0x1830
000644  18303ff8          DCW      0x1830,0x3ff8
000648  3ff8701c          DCW      0x3ff8,0x701c
00064c  600c600c          DCW      0x600c,0x600c
000650  c006c006          DCW      0xc006,0xc006
000654  00000000          DCW      0x0000,0x0000
000658  00000000          DCW      0x0000,0x0000
00065c  00000000          DCW      0x0000,0x0000
000660  000003fc          DCW      0x0000,0x03fc
000664  0ffc0c0c          DCW      0x0ffc,0x0c0c
000668  180c180c          DCW      0x180c,0x180c
00066c  180c0c0c          DCW      0x180c,0x0c0c
000670  07fc0ffc          DCW      0x07fc,0x0ffc
000674  180c300c          DCW      0x180c,0x300c
000678  300c300c          DCW      0x300c,0x300c
00067c  300c180c          DCW      0x300c,0x180c
000680  1ffc07fc          DCW      0x1ffc,0x07fc
000684  00000000          DCW      0x0000,0x0000
000688  00000000          DCW      0x0000,0x0000
00068c  00000000          DCW      0x0000,0x0000
000690  000007c0          DCW      0x0000,0x07c0
000694  1ff03838          DCW      0x1ff0,0x3838
000698  301c700c          DCW      0x301c,0x700c
00069c  60060006          DCW      0x6006,0x0006
0006a0  00060006          DCW      0x0006,0x0006
0006a4  00060006          DCW      0x0006,0x0006
0006a8  00066006          DCW      0x0006,0x6006
0006ac  700c301c          DCW      0x700c,0x301c
0006b0  1ff007e0          DCW      0x1ff0,0x07e0
0006b4  00000000          DCW      0x0000,0x0000
0006b8  00000000          DCW      0x0000,0x0000
0006bc  00000000          DCW      0x0000,0x0000
0006c0  000003fe          DCW      0x0000,0x03fe
0006c4  0ffe0e06          DCW      0x0ffe,0x0e06
0006c8  18061806          DCW      0x1806,0x1806
0006cc  30063006          DCW      0x3006,0x3006
0006d0  30063006          DCW      0x3006,0x3006
0006d4  30063006          DCW      0x3006,0x3006
0006d8  30061806          DCW      0x3006,0x1806
0006dc  18060e06          DCW      0x1806,0x0e06
0006e0  0ffe03fe          DCW      0x0ffe,0x03fe
0006e4  00000000          DCW      0x0000,0x0000
0006e8  00000000          DCW      0x0000,0x0000
0006ec  00000000          DCW      0x0000,0x0000
0006f0  00003ffc          DCW      0x0000,0x3ffc
0006f4  3ffc000c          DCW      0x3ffc,0x000c
0006f8  000c000c          DCW      0x000c,0x000c
0006fc  000c000c          DCW      0x000c,0x000c
000700  1ffc1ffc          DCW      0x1ffc,0x1ffc
000704  000c000c          DCW      0x000c,0x000c
000708  000c000c          DCW      0x000c,0x000c
00070c  000c000c          DCW      0x000c,0x000c
000710  3ffc3ffc          DCW      0x3ffc,0x3ffc
000714  00000000          DCW      0x0000,0x0000
000718  00000000          DCW      0x0000,0x0000
00071c  00000000          DCW      0x0000,0x0000
000720  00003ff8          DCW      0x0000,0x3ff8
000724  3ff80018          DCW      0x3ff8,0x0018
000728  00180018          DCW      0x0018,0x0018
00072c  00180018          DCW      0x0018,0x0018
000730  1ff81ff8          DCW      0x1ff8,0x1ff8
000734  00180018          DCW      0x0018,0x0018
000738  00180018          DCW      0x0018,0x0018
00073c  00180018          DCW      0x0018,0x0018
000740  00180018          DCW      0x0018,0x0018
000744  00000000          DCW      0x0000,0x0000
000748  00000000          DCW      0x0000,0x0000
00074c  00000000          DCW      0x0000,0x0000
000750  00000fe0          DCW      0x0000,0x0fe0
000754  3ff8783c          DCW      0x3ff8,0x783c
000758  600ee006          DCW      0x600e,0xe006
00075c  c0070003          DCW      0xc007,0x0003
000760  0003fe03          DCW      0x0003,0xfe03
000764  fe03c003          DCW      0xfe03,0xc003
000768  c007c006          DCW      0xc007,0xc006
00076c  c00ef03c          DCW      0xc00e,0xf03c
000770  3ff80fe0          DCW      0x3ff8,0x0fe0
000774  00000000          DCW      0x0000,0x0000
000778  00000000          DCW      0x0000,0x0000
00077c  00000000          DCW      0x0000,0x0000
000780  0000300c          DCW      0x0000,0x300c
000784  300c300c          DCW      0x300c,0x300c
000788  300c300c          DCW      0x300c,0x300c
00078c  300c300c          DCW      0x300c,0x300c
000790  3ffc3ffc          DCW      0x3ffc,0x3ffc
000794  300c300c          DCW      0x300c,0x300c
000798  300c300c          DCW      0x300c,0x300c
00079c  300c300c          DCW      0x300c,0x300c
0007a0  300c300c          DCW      0x300c,0x300c
0007a4  00000000          DCW      0x0000,0x0000
0007a8  00000000          DCW      0x0000,0x0000
0007ac  00000000          DCW      0x0000,0x0000
0007b0  00000180          DCW      0x0000,0x0180
0007b4  01800180          DCW      0x0180,0x0180
0007b8  01800180          DCW      0x0180,0x0180
0007bc  01800180          DCW      0x0180,0x0180
0007c0  01800180          DCW      0x0180,0x0180
0007c4  01800180          DCW      0x0180,0x0180
0007c8  01800180          DCW      0x0180,0x0180
0007cc  01800180          DCW      0x0180,0x0180
0007d0  01800180          DCW      0x0180,0x0180
0007d4  00000000          DCW      0x0000,0x0000
0007d8  00000000          DCW      0x0000,0x0000
0007dc  00000000          DCW      0x0000,0x0000
0007e0  00000600          DCW      0x0000,0x0600
0007e4  06000600          DCW      0x0600,0x0600
0007e8  06000600          DCW      0x0600,0x0600
0007ec  06000600          DCW      0x0600,0x0600
0007f0  06000600          DCW      0x0600,0x0600
0007f4  06000600          DCW      0x0600,0x0600
0007f8  06000618          DCW      0x0600,0x0618
0007fc  06180738          DCW      0x0618,0x0738
000800  03f001e0          DCW      0x03f0,0x01e0
000804  00000000          DCW      0x0000,0x0000
000808  00000000          DCW      0x0000,0x0000
00080c  00000000          DCW      0x0000,0x0000
000810  00003006          DCW      0x0000,0x3006
000814  18060c06          DCW      0x1806,0x0c06
000818  06060306          DCW      0x0606,0x0306
00081c  018600c6          DCW      0x0186,0x00c6
000820  00660076          DCW      0x0066,0x0076
000824  00de018e          DCW      0x00de,0x018e
000828  03060606          DCW      0x0306,0x0606
00082c  0c061806          DCW      0x0c06,0x1806
000830  30066006          DCW      0x3006,0x6006
000834  00000000          DCW      0x0000,0x0000
000838  00000000          DCW      0x0000,0x0000
00083c  00000000          DCW      0x0000,0x0000
000840  00000018          DCW      0x0000,0x0018
000844  00180018          DCW      0x0018,0x0018
000848  00180018          DCW      0x0018,0x0018
00084c  00180018          DCW      0x0018,0x0018
000850  00180018          DCW      0x0018,0x0018
000854  00180018          DCW      0x0018,0x0018
000858  00180018          DCW      0x0018,0x0018
00085c  00180018          DCW      0x0018,0x0018
000860  1ff81ff8          DCW      0x1ff8,0x1ff8
000864  00000000          DCW      0x0000,0x0000
000868  00000000          DCW      0x0000,0x0000
00086c  00000000          DCW      0x0000,0x0000
000870  0000e00e          DCW      0x0000,0xe00e
000874  f01ef01e          DCW      0xf01e,0xf01e
000878  f01ed836          DCW      0xf01e,0xd836
00087c  d836d836          DCW      0xd836,0xd836
000880  d836cc66          DCW      0xd836,0xcc66
000884  cc66cc66          DCW      0xcc66,0xcc66
000888  c6c6c6c6          DCW      0xc6c6,0xc6c6
00088c  c6c6c6c6          DCW      0xc6c6,0xc6c6
000890  c386c386          DCW      0xc386,0xc386
000894  00000000          DCW      0x0000,0x0000
000898  00000000          DCW      0x0000,0x0000
00089c  00000000          DCW      0x0000,0x0000
0008a0  0000300c          DCW      0x0000,0x300c
0008a4  301c303c          DCW      0x301c,0x303c
0008a8  303c306c          DCW      0x303c,0x306c
0008ac  306c30cc          DCW      0x306c,0x30cc
0008b0  30cc318c          DCW      0x30cc,0x318c
0008b4  330c330c          DCW      0x330c,0x330c
0008b8  360c360c          DCW      0x360c,0x360c
0008bc  3c0c3c0c          DCW      0x3c0c,0x3c0c
0008c0  380c300c          DCW      0x380c,0x300c
0008c4  00000000          DCW      0x0000,0x0000
0008c8  00000000          DCW      0x0000,0x0000
0008cc  00000000          DCW      0x0000,0x0000
0008d0  000007e0          DCW      0x0000,0x07e0
0008d4  1ff8381c          DCW      0x1ff8,0x381c
0008d8  700e6006          DCW      0x700e,0x6006
0008dc  c003c003          DCW      0xc003,0xc003
0008e0  c003c003          DCW      0xc003,0xc003
0008e4  c003c003          DCW      0xc003,0xc003
0008e8  c0036006          DCW      0xc003,0x6006
0008ec  700e381c          DCW      0x700e,0x381c
0008f0  1ff807e0          DCW      0x1ff8,0x07e0
0008f4  00000000          DCW      0x0000,0x0000
0008f8  00000000          DCW      0x0000,0x0000
0008fc  00000000          DCW      0x0000,0x0000
000900  00000ffc          DCW      0x0000,0x0ffc
000904  1ffc380c          DCW      0x1ffc,0x380c
000908  300c300c          DCW      0x300c,0x300c
00090c  300c300c          DCW      0x300c,0x300c
000910  180c1ffc          DCW      0x180c,0x1ffc
000914  07fc000c          DCW      0x07fc,0x000c
000918  000c000c          DCW      0x000c,0x000c
00091c  000c000c          DCW      0x000c,0x000c
000920  000c000c          DCW      0x000c,0x000c
000924  00000000          DCW      0x0000,0x0000
000928  00000000          DCW      0x0000,0x0000
00092c  00000000          DCW      0x0000,0x0000
000930  000007e0          DCW      0x0000,0x07e0
000934  1ff8381c          DCW      0x1ff8,0x381c
000938  700e6006          DCW      0x700e,0x6006
00093c  e003c003          DCW      0xe003,0xc003
000940  c003c003          DCW      0xc003,0xc003
000944  c003c003          DCW      0xc003,0xc003
000948  e0076306          DCW      0xe007,0x6306
00094c  3f0e3c1c          DCW      0x3f0e,0x3c1c
000950  3ff8f7e0          DCW      0x3ff8,0xf7e0
000954  c0000000          DCW      0xc000,0x0000
000958  00000000          DCW      0x0000,0x0000
00095c  00000000          DCW      0x0000,0x0000
000960  00000ffe          DCW      0x0000,0x0ffe
000964  1ffe3806          DCW      0x1ffe,0x3806
000968  30063006          DCW      0x3006,0x3006
00096c  30063806          DCW      0x3006,0x3806
000970  1ffe07fe          DCW      0x1ffe,0x07fe
000974  03060606          DCW      0x0306,0x0606
000978  0c061806          DCW      0x0c06,0x1806
00097c  18063006          DCW      0x1806,0x3006
000980  30066006          DCW      0x3006,0x6006
000984  00000000          DCW      0x0000,0x0000
000988  00000000          DCW      0x0000,0x0000
00098c  00000000          DCW      0x0000,0x0000
000990  000003e0          DCW      0x0000,0x03e0
000994  0ff80c1c          DCW      0x0ff8,0x0c1c
000998  180c180c          DCW      0x180c,0x180c
00099c  000c001c          DCW      0x000c,0x001c
0009a0  03f80fe0          DCW      0x03f8,0x0fe0
0009a4  1e003800          DCW      0x1e00,0x3800
0009a8  30063006          DCW      0x3006,0x3006
0009ac  300e1c1c          DCW      0x300e,0x1c1c
0009b0  0ff807e0          DCW      0x0ff8,0x07e0
0009b4  00000000          DCW      0x0000,0x0000
0009b8  00000000          DCW      0x0000,0x0000
0009bc  00000000          DCW      0x0000,0x0000
0009c0  00007ffe          DCW      0x0000,0x7ffe
0009c4  7ffe0180          DCW      0x7ffe,0x0180
0009c8  01800180          DCW      0x0180,0x0180
0009cc  01800180          DCW      0x0180,0x0180
0009d0  01800180          DCW      0x0180,0x0180
0009d4  01800180          DCW      0x0180,0x0180
0009d8  01800180          DCW      0x0180,0x0180
0009dc  01800180          DCW      0x0180,0x0180
0009e0  01800180          DCW      0x0180,0x0180
0009e4  00000000          DCW      0x0000,0x0000
0009e8  00000000          DCW      0x0000,0x0000
0009ec  00000000          DCW      0x0000,0x0000
0009f0  0000300c          DCW      0x0000,0x300c
0009f4  300c300c          DCW      0x300c,0x300c
0009f8  300c300c          DCW      0x300c,0x300c
0009fc  300c300c          DCW      0x300c,0x300c
000a00  300c300c          DCW      0x300c,0x300c
000a04  300c300c          DCW      0x300c,0x300c
000a08  300c300c          DCW      0x300c,0x300c
000a0c  300c1818          DCW      0x300c,0x1818
000a10  1ff807e0          DCW      0x1ff8,0x07e0
000a14  00000000          DCW      0x0000,0x0000
000a18  00000000          DCW      0x0000,0x0000
000a1c  00000000          DCW      0x0000,0x0000
000a20  00006003          DCW      0x0000,0x6003
000a24  30063006          DCW      0x3006,0x3006
000a28  3006180c          DCW      0x3006,0x180c
000a2c  180c180c          DCW      0x180c,0x180c
000a30  0c180c18          DCW      0x0c18,0x0c18
000a34  0e380630          DCW      0x0e38,0x0630
000a38  06300770          DCW      0x0630,0x0770
000a3c  03600360          DCW      0x0360,0x0360
000a40  01c001c0          DCW      0x01c0,0x01c0
000a44  00000000          DCW      0x0000,0x0000
000a48  00000000          DCW      0x0000,0x0000
000a4c  00000000          DCW      0x0000,0x0000
000a50  00006003          DCW      0x0000,0x6003
000a54  61c361c3          DCW      0x61c3,0x61c3
000a58  61c33366          DCW      0x61c3,0x3366
000a5c  33663366          DCW      0x3366,0x3366
000a60  33663366          DCW      0x3366,0x3366
000a64  33661b6c          DCW      0x3366,0x1b6c
000a68  1b6c1b6c          DCW      0x1b6c,0x1b6c
000a6c  1a2c1e3c          DCW      0x1a2c,0x1e3c
000a70  0e380e38          DCW      0x0e38,0x0e38
000a74  00000000          DCW      0x0000,0x0000
000a78  00000000          DCW      0x0000,0x0000
000a7c  00000000          DCW      0x0000,0x0000
000a80  0000e00f          DCW      0x0000,0xe00f
000a84  700c3018          DCW      0x700c,0x3018
000a88  18300c70          DCW      0x1830,0x0c70
000a8c  0e6007c0          DCW      0x0e60,0x07c0
000a90  03800380          DCW      0x0380,0x0380
000a94  03c006e0          DCW      0x03c0,0x06e0
000a98  0c701c30          DCW      0x0c70,0x1c30
000a9c  1818300c          DCW      0x1818,0x300c
000aa0  600ee007          DCW      0x600e,0xe007
000aa4  00000000          DCW      0x0000,0x0000
000aa8  00000000          DCW      0x0000,0x0000
000aac  00000000          DCW      0x0000,0x0000
000ab0  0000c003          DCW      0x0000,0xc003
000ab4  6006300c          DCW      0x6006,0x300c
000ab8  381c1838          DCW      0x381c,0x1838
000abc  0c300660          DCW      0x0c30,0x0660
000ac0  07e003c0          DCW      0x07e0,0x03c0
000ac4  01800180          DCW      0x0180,0x0180
000ac8  01800180          DCW      0x0180,0x0180
000acc  01800180          DCW      0x0180,0x0180
000ad0  01800180          DCW      0x0180,0x0180
000ad4  00000000          DCW      0x0000,0x0000
000ad8  00000000          DCW      0x0000,0x0000
000adc  00000000          DCW      0x0000,0x0000
000ae0  00007ffc          DCW      0x0000,0x7ffc
000ae4  7ffc6000          DCW      0x7ffc,0x6000
000ae8  30001800          DCW      0x3000,0x1800
000aec  0c000600          DCW      0x0c00,0x0600
000af0  03000180          DCW      0x0300,0x0180
000af4  00c00060          DCW      0x00c0,0x0060
000af8  00300018          DCW      0x0030,0x0018
000afc  000c0006          DCW      0x000c,0x0006
000b00  7ffe7ffe          DCW      0x7ffe,0x7ffe
000b04  00000000          DCW      0x0000,0x0000
000b08  00000000          DCW      0x0000,0x0000
000b0c  00000000          DCW      0x0000,0x0000
000b10  000003e0          DCW      0x0000,0x03e0
000b14  03e00060          DCW      0x03e0,0x0060
000b18  00600060          DCW      0x0060,0x0060
000b1c  00600060          DCW      0x0060,0x0060
000b20  00600060          DCW      0x0060,0x0060
000b24  00600060          DCW      0x0060,0x0060
000b28  00600060          DCW      0x0060,0x0060
000b2c  00600060          DCW      0x0060,0x0060
000b30  00600060          DCW      0x0060,0x0060
000b34  00600060          DCW      0x0060,0x0060
000b38  006003e0          DCW      0x0060,0x03e0
000b3c  03e00000          DCW      0x03e0,0x0000
000b40  00000030          DCW      0x0000,0x0030
000b44  00300060          DCW      0x0030,0x0060
000b48  00600060          DCW      0x0060,0x0060
000b4c  00c000c0          DCW      0x00c0,0x00c0
000b50  00c001c0          DCW      0x00c0,0x01c0
000b54  01800180          DCW      0x0180,0x0180
000b58  01800300          DCW      0x0180,0x0300
000b5c  03000300          DCW      0x0300,0x0300
000b60  06000600          DCW      0x0600,0x0600
000b64  00000000          DCW      0x0000,0x0000
000b68  00000000          DCW      0x0000,0x0000
000b6c  00000000          DCW      0x0000,0x0000
000b70  000003e0          DCW      0x0000,0x03e0
000b74  03e00300          DCW      0x03e0,0x0300
000b78  03000300          DCW      0x0300,0x0300
000b7c  03000300          DCW      0x0300,0x0300
000b80  03000300          DCW      0x0300,0x0300
000b84  03000300          DCW      0x0300,0x0300
000b88  03000300          DCW      0x0300,0x0300
000b8c  03000300          DCW      0x0300,0x0300
000b90  03000300          DCW      0x0300,0x0300
000b94  03000300          DCW      0x0300,0x0300
000b98  030003e0          DCW      0x0300,0x03e0
000b9c  03e00000          DCW      0x03e0,0x0000
000ba0  00000000          DCW      0x0000,0x0000
000ba4  01c001c0          DCW      0x01c0,0x01c0
000ba8  03600360          DCW      0x0360,0x0360
000bac  03600630          DCW      0x0360,0x0630
000bb0  06300c18          DCW      0x0630,0x0c18
000bb4  0c180000          DCW      0x0c18,0x0000
000bb8  00000000          DCW      0x0000,0x0000
000bbc  00000000          DCW      0x0000,0x0000
000bc0  00000000          DCW      0x0000,0x0000
000bc4  00000000          DCW      0x0000,0x0000
000bc8  00000000          DCW      0x0000,0x0000
000bcc  00000000          DCW      0x0000,0x0000
000bd0  00000000          DCW      0x0000,0x0000
000bd4  00000000          DCW      0x0000,0x0000
000bd8  00000000          DCW      0x0000,0x0000
000bdc  00000000          DCW      0x0000,0x0000
000be0  00000000          DCW      0x0000,0x0000
000be4  00000000          DCW      0x0000,0x0000
000be8  00000000          DCW      0x0000,0x0000
000bec  00000000          DCW      0x0000,0x0000
000bf0  0000ffff          DCW      0x0000,0xffff
000bf4  ffff0000          DCW      0xffff,0x0000
000bf8  00000000          DCW      0x0000,0x0000
000bfc  00000000          DCW      0x0000,0x0000
000c00  0000000c          DCW      0x0000,0x000c
000c04  000c000c          DCW      0x000c,0x000c
000c08  000c000c          DCW      0x000c,0x000c
000c0c  000c0000          DCW      0x000c,0x0000
000c10  00000000          DCW      0x0000,0x0000
000c14  00000000          DCW      0x0000,0x0000
000c18  00000000          DCW      0x0000,0x0000
000c1c  00000000          DCW      0x0000,0x0000
000c20  00000000          DCW      0x0000,0x0000
000c24  00000000          DCW      0x0000,0x0000
000c28  00000000          DCW      0x0000,0x0000
000c2c  00000000          DCW      0x0000,0x0000
000c30  00000000          DCW      0x0000,0x0000
000c34  00000000          DCW      0x0000,0x0000
000c38  00000000          DCW      0x0000,0x0000
000c3c  03f007f8          DCW      0x03f0,0x07f8
000c40  0c1c0c0c          DCW      0x0c1c,0x0c0c
000c44  0f000ff0          DCW      0x0f00,0x0ff0
000c48  0cf80c0c          DCW      0x0cf8,0x0c0c
000c4c  0c0c0f1c          DCW      0x0c0c,0x0f1c
000c50  0ff818f0          DCW      0x0ff8,0x18f0
000c54  00000000          DCW      0x0000,0x0000
000c58  00000000          DCW      0x0000,0x0000
000c5c  00000000          DCW      0x0000,0x0000
000c60  00000018          DCW      0x0000,0x0018
000c64  00180018          DCW      0x0018,0x0018
000c68  00180018          DCW      0x0018,0x0018
000c6c  03d80ff8          DCW      0x03d8,0x0ff8
000c70  0c381818          DCW      0x0c38,0x1818
000c74  18181818          DCW      0x1818,0x1818
000c78  18181818          DCW      0x1818,0x1818
000c7c  18180c38          DCW      0x1818,0x0c38
000c80  0ff803d8          DCW      0x0ff8,0x03d8
000c84  00000000          DCW      0x0000,0x0000
000c88  00000000          DCW      0x0000,0x0000
000c8c  00000000          DCW      0x0000,0x0000
000c90  00000000          DCW      0x0000,0x0000
000c94  00000000          DCW      0x0000,0x0000
000c98  00000000          DCW      0x0000,0x0000
000c9c  03c007f0          DCW      0x03c0,0x07f0
000ca0  0e300c18          DCW      0x0e30,0x0c18
000ca4  00180018          DCW      0x0018,0x0018
000ca8  00180018          DCW      0x0018,0x0018
000cac  0c180e30          DCW      0x0c18,0x0e30
000cb0  07f003c0          DCW      0x07f0,0x03c0
000cb4  00000000          DCW      0x0000,0x0000
000cb8  00000000          DCW      0x0000,0x0000
000cbc  00000000          DCW      0x0000,0x0000
000cc0  00001800          DCW      0x0000,0x1800
000cc4  18001800          DCW      0x1800,0x1800
000cc8  18001800          DCW      0x1800,0x1800
000ccc  1bc01ff0          DCW      0x1bc0,0x1ff0
000cd0  1c301818          DCW      0x1c30,0x1818
000cd4  18181818          DCW      0x1818,0x1818
000cd8  18181818          DCW      0x1818,0x1818
000cdc  18181c30          DCW      0x1818,0x1c30
000ce0  1ff01bc0          DCW      0x1ff0,0x1bc0
000ce4  00000000          DCW      0x0000,0x0000
000ce8  00000000          DCW      0x0000,0x0000
000cec  00000000          DCW      0x0000,0x0000
000cf0  00000000          DCW      0x0000,0x0000
000cf4  00000000          DCW      0x0000,0x0000
000cf8  00000000          DCW      0x0000,0x0000
000cfc  03c00ff0          DCW      0x03c0,0x0ff0
000d00  0c301818          DCW      0x0c30,0x1818
000d04  1ff81ff8          DCW      0x1ff8,0x1ff8
000d08  00180018          DCW      0x0018,0x0018
000d0c  18381c30          DCW      0x1838,0x1c30
000d10  0ff007c0          DCW      0x0ff0,0x07c0
000d14  00000000          DCW      0x0000,0x0000
000d18  00000000          DCW      0x0000,0x0000
000d1c  00000000          DCW      0x0000,0x0000
000d20  00000f80          DCW      0x0000,0x0f80
000d24  0fc000c0          DCW      0x0fc0,0x00c0
000d28  00c000c0          DCW      0x00c0,0x00c0
000d2c  07f007f0          DCW      0x07f0,0x07f0
000d30  00c000c0          DCW      0x00c0,0x00c0
000d34  00c000c0          DCW      0x00c0,0x00c0
000d38  00c000c0          DCW      0x00c0,0x00c0
000d3c  00c000c0          DCW      0x00c0,0x00c0
000d40  00c000c0          DCW      0x00c0,0x00c0
000d44  00000000          DCW      0x0000,0x0000
000d48  00000000          DCW      0x0000,0x0000
000d4c  00000000          DCW      0x0000,0x0000
000d50  00000000          DCW      0x0000,0x0000
000d54  00000000          DCW      0x0000,0x0000
000d58  00000000          DCW      0x0000,0x0000
000d5c  0de00ff8          DCW      0x0de0,0x0ff8
000d60  0e180c0c          DCW      0x0e18,0x0c0c
000d64  0c0c0c0c          DCW      0x0c0c,0x0c0c
000d68  0c0c0c0c          DCW      0x0c0c,0x0c0c
000d6c  0c0c0e18          DCW      0x0c0c,0x0e18
000d70  0ff80de0          DCW      0x0ff8,0x0de0
000d74  0c000c0c          DCW      0x0c00,0x0c0c
000d78  061c07f8          DCW      0x061c,0x07f8
000d7c  01f00000          DCW      0x01f0,0x0000
000d80  00000018          DCW      0x0000,0x0018
000d84  00180018          DCW      0x0018,0x0018
000d88  00180018          DCW      0x0018,0x0018
000d8c  07d80ff8          DCW      0x07d8,0x0ff8
000d90  1c381818          DCW      0x1c38,0x1818
000d94  18181818          DCW      0x1818,0x1818
000d98  18181818          DCW      0x1818,0x1818
000d9c  18181818          DCW      0x1818,0x1818
000da0  18181818          DCW      0x1818,0x1818
000da4  00000000          DCW      0x0000,0x0000
000da8  00000000          DCW      0x0000,0x0000
000dac  00000000          DCW      0x0000,0x0000
000db0  000000c0          DCW      0x0000,0x00c0
000db4  00c00000          DCW      0x00c0,0x0000
000db8  00000000          DCW      0x0000,0x0000
000dbc  00c000c0          DCW      0x00c0,0x00c0
000dc0  00c000c0          DCW      0x00c0,0x00c0
000dc4  00c000c0          DCW      0x00c0,0x00c0
000dc8  00c000c0          DCW      0x00c0,0x00c0
000dcc  00c000c0          DCW      0x00c0,0x00c0
000dd0  00c000c0          DCW      0x00c0,0x00c0
000dd4  00000000          DCW      0x0000,0x0000
000dd8  00000000          DCW      0x0000,0x0000
000ddc  00000000          DCW      0x0000,0x0000
000de0  000000c0          DCW      0x0000,0x00c0
000de4  00c00000          DCW      0x00c0,0x0000
000de8  00000000          DCW      0x0000,0x0000
000dec  00c000c0          DCW      0x00c0,0x00c0
000df0  00c000c0          DCW      0x00c0,0x00c0
000df4  00c000c0          DCW      0x00c0,0x00c0
000df8  00c000c0          DCW      0x00c0,0x00c0
000dfc  00c000c0          DCW      0x00c0,0x00c0
000e00  00c000c0          DCW      0x00c0,0x00c0
000e04  00c000c0          DCW      0x00c0,0x00c0
000e08  00c000f8          DCW      0x00c0,0x00f8
000e0c  00780000          DCW      0x0078,0x0000
000e10  0000000c          DCW      0x0000,0x000c
000e14  000c000c          DCW      0x000c,0x000c
000e18  000c000c          DCW      0x000c,0x000c
000e1c  0c0c060c          DCW      0x0c0c,0x060c
000e20  030c018c          DCW      0x030c,0x018c
000e24  00cc006c          DCW      0x00cc,0x006c
000e28  00fc019c          DCW      0x00fc,0x019c
000e2c  038c030c          DCW      0x038c,0x030c
000e30  060c0c0c          DCW      0x060c,0x0c0c
000e34  00000000          DCW      0x0000,0x0000
000e38  00000000          DCW      0x0000,0x0000
000e3c  00000000          DCW      0x0000,0x0000
000e40  000000c0          DCW      0x0000,0x00c0
000e44  00c000c0          DCW      0x00c0,0x00c0
000e48  00c000c0          DCW      0x00c0,0x00c0
000e4c  00c000c0          DCW      0x00c0,0x00c0
000e50  00c000c0          DCW      0x00c0,0x00c0
000e54  00c000c0          DCW      0x00c0,0x00c0
000e58  00c000c0          DCW      0x00c0,0x00c0
000e5c  00c000c0          DCW      0x00c0,0x00c0
000e60  00c000c0          DCW      0x00c0,0x00c0
000e64  00000000          DCW      0x0000,0x0000
000e68  00000000          DCW      0x0000,0x0000
000e6c  00000000          DCW      0x0000,0x0000
000e70  00000000          DCW      0x0000,0x0000
000e74  00000000          DCW      0x0000,0x0000
000e78  00000000          DCW      0x0000,0x0000
000e7c  3c7c7eff          DCW      0x3c7c,0x7eff
000e80  e3c7c183          DCW      0xe3c7,0xc183
000e84  c183c183          DCW      0xc183,0xc183
000e88  c183c183          DCW      0xc183,0xc183
000e8c  c183c183          DCW      0xc183,0xc183
000e90  c183c183          DCW      0xc183,0xc183
000e94  00000000          DCW      0x0000,0x0000
000e98  00000000          DCW      0x0000,0x0000
000e9c  00000000          DCW      0x0000,0x0000
000ea0  00000000          DCW      0x0000,0x0000
000ea4  00000000          DCW      0x0000,0x0000
000ea8  00000000          DCW      0x0000,0x0000
000eac  07980ff8          DCW      0x0798,0x0ff8
000eb0  1c381818          DCW      0x1c38,0x1818
000eb4  18181818          DCW      0x1818,0x1818
000eb8  18181818          DCW      0x1818,0x1818
000ebc  18181818          DCW      0x1818,0x1818
000ec0  18181818          DCW      0x1818,0x1818
000ec4  00000000          DCW      0x0000,0x0000
000ec8  00000000          DCW      0x0000,0x0000
000ecc  00000000          DCW      0x0000,0x0000
000ed0  00000000          DCW      0x0000,0x0000
000ed4  00000000          DCW      0x0000,0x0000
000ed8  00000000          DCW      0x0000,0x0000
000edc  03c00ff0          DCW      0x03c0,0x0ff0
000ee0  0c301818          DCW      0x0c30,0x1818
000ee4  18181818          DCW      0x1818,0x1818
000ee8  18181818          DCW      0x1818,0x1818
000eec  18180c30          DCW      0x1818,0x0c30
000ef0  0ff003c0          DCW      0x0ff0,0x03c0
000ef4  00000000          DCW      0x0000,0x0000
000ef8  00000000          DCW      0x0000,0x0000
000efc  00000000          DCW      0x0000,0x0000
000f00  00000000          DCW      0x0000,0x0000
000f04  00000000          DCW      0x0000,0x0000
000f08  00000000          DCW      0x0000,0x0000
000f0c  03d80ff8          DCW      0x03d8,0x0ff8
000f10  0c381818          DCW      0x0c38,0x1818
000f14  18181818          DCW      0x1818,0x1818
000f18  18181818          DCW      0x1818,0x1818
000f1c  18180c38          DCW      0x1818,0x0c38
000f20  0ff803d8          DCW      0x0ff8,0x03d8
000f24  00180018          DCW      0x0018,0x0018
000f28  00180018          DCW      0x0018,0x0018
000f2c  00180000          DCW      0x0018,0x0000
000f30  00000000          DCW      0x0000,0x0000
000f34  00000000          DCW      0x0000,0x0000
000f38  00000000          DCW      0x0000,0x0000
000f3c  1bc01ff0          DCW      0x1bc0,0x1ff0
000f40  1c301818          DCW      0x1c30,0x1818
000f44  18181818          DCW      0x1818,0x1818
000f48  18181818          DCW      0x1818,0x1818
000f4c  18181c30          DCW      0x1818,0x1c30
000f50  1ff01bc0          DCW      0x1ff0,0x1bc0
000f54  18001800          DCW      0x1800,0x1800
000f58  18001800          DCW      0x1800,0x1800
000f5c  18000000          DCW      0x1800,0x0000
000f60  00000000          DCW      0x0000,0x0000
000f64  00000000          DCW      0x0000,0x0000
000f68  00000000          DCW      0x0000,0x0000
000f6c  07b003f0          DCW      0x07b0,0x03f0
000f70  00700030          DCW      0x0070,0x0030
000f74  00300030          DCW      0x0030,0x0030
000f78  00300030          DCW      0x0030,0x0030
000f7c  00300030          DCW      0x0030,0x0030
000f80  00300030          DCW      0x0030,0x0030
000f84  00000000          DCW      0x0000,0x0000
000f88  00000000          DCW      0x0000,0x0000
000f8c  00000000          DCW      0x0000,0x0000
000f90  00000000          DCW      0x0000,0x0000
000f94  00000000          DCW      0x0000,0x0000
000f98  00000000          DCW      0x0000,0x0000
000f9c  03e003f0          DCW      0x03e0,0x03f0
000fa0  0e380c18          DCW      0x0e38,0x0c18
000fa4  003803f0          DCW      0x0038,0x03f0
000fa8  07c00c00          DCW      0x07c0,0x0c00
000fac  0c180e38          DCW      0x0c18,0x0e38
000fb0  07f003e0          DCW      0x07f0,0x03e0
000fb4  00000000          DCW      0x0000,0x0000
000fb8  00000000          DCW      0x0000,0x0000
000fbc  00000000          DCW      0x0000,0x0000
000fc0  00000000          DCW      0x0000,0x0000
000fc4  008000c0          DCW      0x0080,0x00c0
000fc8  00c000c0          DCW      0x00c0,0x00c0
000fcc  07f007f0          DCW      0x07f0,0x07f0
000fd0  00c000c0          DCW      0x00c0,0x00c0
000fd4  00c000c0          DCW      0x00c0,0x00c0
000fd8  00c000c0          DCW      0x00c0,0x00c0
000fdc  00c000c0          DCW      0x00c0,0x00c0
000fe0  07c00780          DCW      0x07c0,0x0780
000fe4  00000000          DCW      0x0000,0x0000
000fe8  00000000          DCW      0x0000,0x0000
000fec  00000000          DCW      0x0000,0x0000
000ff0  00000000          DCW      0x0000,0x0000
000ff4  00000000          DCW      0x0000,0x0000
000ff8  00000000          DCW      0x0000,0x0000
000ffc  18181818          DCW      0x1818,0x1818
001000  18181818          DCW      0x1818,0x1818
001004  18181818          DCW      0x1818,0x1818
001008  18181818          DCW      0x1818,0x1818
00100c  18181c38          DCW      0x1818,0x1c38
001010  1ff019e0          DCW      0x1ff0,0x19e0
001014  00000000          DCW      0x0000,0x0000
001018  00000000          DCW      0x0000,0x0000
00101c  00000000          DCW      0x0000,0x0000
001020  00000000          DCW      0x0000,0x0000
001024  00000000          DCW      0x0000,0x0000
001028  00000000          DCW      0x0000,0x0000
00102c  180c0c18          DCW      0x180c,0x0c18
001030  0c180c18          DCW      0x0c18,0x0c18
001034  06300630          DCW      0x0630,0x0630
001038  06300360          DCW      0x0630,0x0360
00103c  03600360          DCW      0x0360,0x0360
001040  01c001c0          DCW      0x01c0,0x01c0
001044  00000000          DCW      0x0000,0x0000
001048  00000000          DCW      0x0000,0x0000
00104c  00000000          DCW      0x0000,0x0000
001050  00000000          DCW      0x0000,0x0000
001054  00000000          DCW      0x0000,0x0000
001058  00000000          DCW      0x0000,0x0000
00105c  41c141c1          DCW      0x41c1,0x41c1
001060  61c36363          DCW      0x61c3,0x6363
001064  63636363          DCW      0x6363,0x6363
001068  36363636          DCW      0x3636,0x3636
00106c  36361c1c          DCW      0x3636,0x1c1c
001070  1c1c1c1c          DCW      0x1c1c,0x1c1c
001074  00000000          DCW      0x0000,0x0000
001078  00000000          DCW      0x0000,0x0000
00107c  00000000          DCW      0x0000,0x0000
001080  00000000          DCW      0x0000,0x0000
001084  00000000          DCW      0x0000,0x0000
001088  00000000          DCW      0x0000,0x0000
00108c  381c1c38          DCW      0x381c,0x1c38
001090  0c300660          DCW      0x0c30,0x0660
001094  03c003c0          DCW      0x03c0,0x03c0
001098  03c003c0          DCW      0x03c0,0x03c0
00109c  06600c30          DCW      0x0660,0x0c30
0010a0  1c38381c          DCW      0x1c38,0x381c
0010a4  00000000          DCW      0x0000,0x0000
0010a8  00000000          DCW      0x0000,0x0000
0010ac  00000000          DCW      0x0000,0x0000
0010b0  00000000          DCW      0x0000,0x0000
0010b4  00000000          DCW      0x0000,0x0000
0010b8  00000000          DCW      0x0000,0x0000
0010bc  30181830          DCW      0x3018,0x1830
0010c0  18301870          DCW      0x1830,0x1870
0010c4  0c600c60          DCW      0x0c60,0x0c60
0010c8  0ce006c0          DCW      0x0ce0,0x06c0
0010cc  06c00380          DCW      0x06c0,0x0380
0010d0  03800380          DCW      0x0380,0x0380
0010d4  01800180          DCW      0x0180,0x0180
0010d8  01c000f0          DCW      0x01c0,0x00f0
0010dc  00700000          DCW      0x0070,0x0000
0010e0  00000000          DCW      0x0000,0x0000
0010e4  00000000          DCW      0x0000,0x0000
0010e8  00000000          DCW      0x0000,0x0000
0010ec  1ffc1ffc          DCW      0x1ffc,0x1ffc
0010f0  0c000600          DCW      0x0c00,0x0600
0010f4  03000180          DCW      0x0300,0x0180
0010f8  00c00060          DCW      0x00c0,0x0060
0010fc  00300018          DCW      0x0030,0x0018
001100  1ffc1ffc          DCW      0x1ffc,0x1ffc
001104  00000000          DCW      0x0000,0x0000
001108  00000000          DCW      0x0000,0x0000
00110c  00000000          DCW      0x0000,0x0000
001110  00000300          DCW      0x0000,0x0300
001114  018000c0          DCW      0x0180,0x00c0
001118  00c000c0          DCW      0x00c0,0x00c0
00111c  00c000c0          DCW      0x00c0,0x00c0
001120  00c00060          DCW      0x00c0,0x0060
001124  00600030          DCW      0x0060,0x0030
001128  00600040          DCW      0x0060,0x0040
00112c  00c000c0          DCW      0x00c0,0x00c0
001130  00c000c0          DCW      0x00c0,0x00c0
001134  00c000c0          DCW      0x00c0,0x00c0
001138  01800300          DCW      0x0180,0x0300
00113c  00000000          DCW      0x0000,0x0000
001140  00000180          DCW      0x0000,0x0180
001144  01800180          DCW      0x0180,0x0180
001148  01800180          DCW      0x0180,0x0180
00114c  01800180          DCW      0x0180,0x0180
001150  01800180          DCW      0x0180,0x0180
001154  01800180          DCW      0x0180,0x0180
001158  01800180          DCW      0x0180,0x0180
00115c  01800180          DCW      0x0180,0x0180
001160  01800180          DCW      0x0180,0x0180
001164  01800180          DCW      0x0180,0x0180
001168  01800180          DCW      0x0180,0x0180
00116c  01800000          DCW      0x0180,0x0000
001170  00000060          DCW      0x0000,0x0060
001174  00c001c0          DCW      0x00c0,0x01c0
001178  01800180          DCW      0x0180,0x0180
00117c  01800180          DCW      0x0180,0x0180
001180  01800300          DCW      0x0180,0x0300
001184  03000600          DCW      0x0300,0x0600
001188  03000100          DCW      0x0300,0x0100
00118c  01800180          DCW      0x0180,0x0180
001190  01800180          DCW      0x0180,0x0180
001194  01800180          DCW      0x0180,0x0180
001198  00c00060          DCW      0x00c0,0x0060
00119c  00000000          DCW      0x0000,0x0000
0011a0  00000000          DCW      0x0000,0x0000
0011a4  00000000          DCW      0x0000,0x0000
0011a8  00000000          DCW      0x0000,0x0000
0011ac  00000000          DCW      0x0000,0x0000
0011b0  10f01ff8          DCW      0x10f0,0x1ff8
0011b4  0f080000          DCW      0x0f08,0x0000
0011b8  00000000          DCW      0x0000,0x0000
0011bc  00000000          DCW      0x0000,0x0000
0011c0  00000000          DCW      0x0000,0x0000
0011c4  00000000          DCW      0x0000,0x0000
0011c8  00000000          DCW      0x0000,0x0000
0011cc  00000000          DCW      0x0000,0x0000
0011d0  00000000          DCW      0x0000,0x0000
0011d4  00000000          DCW      0x0000,0x0000
0011d8  00000000          DCW      0x0000,0x0000
0011dc  00000000          DCW      0x0000,0x0000
0011e0  00000000          DCW      0x0000,0x0000
0011e4  00000000          DCW      0x0000,0x0000
0011e8  00000000          DCW      0x0000,0x0000
0011ec  00000000          DCW      0x0000,0x0000
0011f0  00000000          DCW      0x0000,0x0000
0011f4  00000000          DCW      0x0000,0x0000
0011f8  00000000          DCW      0x0000,0x0000
0011fc  00000000          DCW      0x0000,0x0000
001200  00000000          DCW      0x0000,0x0000
001204  00000000          DCW      0x0000,0x0000
001208  000003c0          DCW      0x0000,0x03c0
00120c  0c301008          DCW      0x0c30,0x1008
001210  20042004          DCW      0x2004,0x2004
001214  40024002          DCW      0x4002,0x4002
001218  40024002          DCW      0x4002,0x4002
00121c  40022004          DCW      0x4002,0x2004
001220  20041008          DCW      0x2004,0x1008
001224  0c3003c0          DCW      0x0c30,0x03c0
001228  00000000          DCW      0x0000,0x0000
00122c  00000000          DCW      0x0000,0x0000
001230  00000000          DCW      0x0000,0x0000
001234  00000000          DCW      0x0000,0x0000
001238  000003c0          DCW      0x0000,0x03c0
00123c  0ff01ff8          DCW      0x0ff0,0x1ff8
001240  3ffc3ffc          DCW      0x3ffc,0x3ffc
001244  7ffe7ffe          DCW      0x7ffe,0x7ffe
001248  7ffe7ffe          DCW      0x7ffe,0x7ffe
00124c  7ffe3ffc          DCW      0x7ffe,0x3ffc
001250  3ffc1ff8          DCW      0x3ffc,0x1ff8
001254  0ff003c0          DCW      0x0ff0,0x03c0
001258  00000000          DCW      0x0000,0x0000
00125c  00000000          DCW      0x0000,0x0000
001260  00000000          DCW      0x0000,0x0000
001264  00000000          DCW      0x0000,0x0000
001268  00000000          DCW      0x0000,0x0000
00126c  000007e0          DCW      0x0000,0x07e0
001270  0ff01818          DCW      0x0ff0,0x1818
001274  18181818          DCW      0x1818,0x1818
001278  18181818          DCW      0x1818,0x1818
00127c  18180ff0          DCW      0x1818,0x0ff0
001280  07e00000          DCW      0x07e0,0x0000
001284  00000000          DCW      0x0000,0x0000
001288  00000000          DCW      0x0000,0x0000
00128c  00000000          DCW      0x0000,0x0000
001290  00000000          DCW      0x0000,0x0000
001294  00000000          DCW      0x0000,0x0000
001298  00000000          DCW      0x0000,0x0000
00129c  000007e0          DCW      0x0000,0x07e0
0012a0  0ff01ff8          DCW      0x0ff0,0x1ff8
0012a4  1ff81ff8          DCW      0x1ff8,0x1ff8
0012a8  1ff81ff8          DCW      0x1ff8,0x1ff8
0012ac  1ff80ff0          DCW      0x1ff8,0x0ff0
0012b0  07e00000          DCW      0x07e0,0x0000
0012b4  00000000          DCW      0x0000,0x0000
0012b8  00000000          DCW      0x0000,0x0000
0012bc  00000000          DCW      0x0000,0x0000
0012c0  00000000          DCW      0x0000,0x0000
0012c4  00000000          DCW      0x0000,0x0000
0012c8  00000000          DCW      0x0000,0x0000
0012cc  00000000          DCW      0x0000,0x0000
0012d0  00000000          DCW      0x0000,0x0000
0012d4  00000000          DCW      0x0000,0x0000
0012d8  018003c0          DCW      0x0180,0x03c0
0012dc  06600c30          DCW      0x0660,0x0c30
0012e0  18181818          DCW      0x1818,0x1818
0012e4  1ff81ff8          DCW      0x1ff8,0x1ff8
0012e8  00000000          DCW      0x0000,0x0000
0012ec  00000000          DCW      0x0000,0x0000
0012f0  00000000          DCW      0x0000,0x0000
0012f4  00000000          DCW      0x0000,0x0000
0012f8  00000000          DCW      0x0000,0x0000
0012fc  00000000          DCW      0x0000,0x0000
001300  00000000          DCW      0x0000,0x0000
001304  00000000          DCW      0x0000,0x0000
001308  018003c0          DCW      0x0180,0x03c0
00130c  07e00ff0          DCW      0x07e0,0x0ff0
001310  1ff81ff8          DCW      0x1ff8,0x1ff8
001314  1ff81ff8          DCW      0x1ff8,0x1ff8
001318  00000000          DCW      0x0000,0x0000
00131c  00000000          DCW      0x0000,0x0000
001320  00000000          DCW      0x0000,0x0000
001324  00000000          DCW      0x0000,0x0000
001328  1ff81ff8          DCW      0x1ff8,0x1ff8
00132c  18181818          DCW      0x1818,0x1818
001330  0c300660          DCW      0x0c30,0x0660
001334  03c00180          DCW      0x03c0,0x0180
001338  00000000          DCW      0x0000,0x0000
00133c  00000000          DCW      0x0000,0x0000
001340  00000000          DCW      0x0000,0x0000
001344  00000000          DCW      0x0000,0x0000
001348  00000000          DCW      0x0000,0x0000
00134c  00000000          DCW      0x0000,0x0000
001350  00000000          DCW      0x0000,0x0000
001354  00000000          DCW      0x0000,0x0000
001358  1ff81ff8          DCW      0x1ff8,0x1ff8
00135c  1ff81ff8          DCW      0x1ff8,0x1ff8
001360  0ff007e0          DCW      0x0ff0,0x07e0
001364  03c00180          DCW      0x03c0,0x0180
001368  00000000          DCW      0x0000,0x0000
00136c  00000000          DCW      0x0000,0x0000
001370  00000000          DCW      0x0000,0x0000
001374  00000000          DCW      0x0000,0x0000
001378  00000000          DCW      0x0000,0x0000
00137c  00000000          DCW      0x0000,0x0000
001380  00000000          DCW      0x0000,0x0000
001384  00000000          DCW      0x0000,0x0000
001388  00000000          DCW      0x0000,0x0000
00138c  000001e0          DCW      0x0000,0x01e0
001390  01f00198          DCW      0x01f0,0x0198
001394  018c0186          DCW      0x018c,0x0186
001398  0186018c          DCW      0x0186,0x018c
00139c  019801f0          DCW      0x0198,0x01f0
0013a0  01e00000          DCW      0x01e0,0x0000
0013a4  00000000          DCW      0x0000,0x0000
0013a8  00000000          DCW      0x0000,0x0000
0013ac  00000000          DCW      0x0000,0x0000
0013b0  00000000          DCW      0x0000,0x0000
0013b4  00000000          DCW      0x0000,0x0000
0013b8  00000000          DCW      0x0000,0x0000
0013bc  000001e0          DCW      0x0000,0x01e0
0013c0  01f001f8          DCW      0x01f0,0x01f8
0013c4  01fc01fe          DCW      0x01fc,0x01fe
0013c8  01fe01fc          DCW      0x01fe,0x01fc
0013cc  01f801f0          DCW      0x01f8,0x01f0
0013d0  01e00000          DCW      0x01e0,0x0000
0013d4  00000000          DCW      0x0000,0x0000
0013d8  00000000          DCW      0x0000,0x0000
0013dc  00000000          DCW      0x0000,0x0000
0013e0  00000000          DCW      0x0000,0x0000
0013e4  00000000          DCW      0x0000,0x0000
0013e8  00000000          DCW      0x0000,0x0000
0013ec  00000780          DCW      0x0000,0x0780
0013f0  0f801980          DCW      0x0f80,0x1980
0013f4  31806180          DCW      0x3180,0x6180
0013f8  61803180          DCW      0x6180,0x3180
0013fc  19800f80          DCW      0x1980,0x0f80
001400  07800000          DCW      0x0780,0x0000
001404  00000000          DCW      0x0000,0x0000
001408  00000000          DCW      0x0000,0x0000
00140c  00000000          DCW      0x0000,0x0000
001410  00000000          DCW      0x0000,0x0000
001414  00000000          DCW      0x0000,0x0000
001418  00000000          DCW      0x0000,0x0000
00141c  00000780          DCW      0x0000,0x0780
001420  0f801f80          DCW      0x0f80,0x1f80
001424  3f807f80          DCW      0x3f80,0x7f80
001428  7f803f80          DCW      0x7f80,0x3f80
00142c  1f800f80          DCW      0x1f80,0x0f80
001430  07800000          DCW      0x0780,0x0000
001434  00000000          DCW      0x0000,0x0000
001438  00000000          DCW      0x0000,0x0000
00143c  00000000          DCW      0x0000,0x0000
001440  000001c0          DCW      0x0000,0x01c0
001444  02200220          DCW      0x0220,0x0220
001448  01400630          DCW      0x0140,0x0630
00144c  08080808          DCW      0x0808,0x0808
001450  08080808          DCW      0x0808,0x0808
001454  08080808          DCW      0x0808,0x0808
001458  08080220          DCW      0x0808,0x0220
00145c  02200220          DCW      0x0220,0x0220
001460  02200220          DCW      0x0220,0x0220
001464  02200220          DCW      0x0220,0x0220
001468  02200220          DCW      0x0220,0x0220
00146c  02200000          DCW      0x0220,0x0000
001470  000001c0          DCW      0x0000,0x01c0
001474  03e003e0          DCW      0x03e0,0x03e0
001478  01c007f0          DCW      0x01c0,0x07f0
00147c  0dd80dd8          DCW      0x0dd8,0x0dd8
001480  0dd80dd8          DCW      0x0dd8,0x0dd8
001484  0dd80dd8          DCW      0x0dd8,0x0dd8
001488  0dd80360          DCW      0x0dd8,0x0360
00148c  03600360          DCW      0x0360,0x0360
001490  03600360          DCW      0x0360,0x0360
001494  03600360          DCW      0x0360,0x0360
001498  03600360          DCW      0x0360,0x0360
00149c  03600000          DCW      0x0360,0x0000
0014a0  000001c0          DCW      0x0000,0x01c0
0014a4  02200220          DCW      0x0220,0x0220
0014a8  01400630          DCW      0x0140,0x0630
0014ac  08080808          DCW      0x0808,0x0808
0014b0  08081004          DCW      0x0808,0x1004
0014b4  20022002          DCW      0x2002,0x2002
0014b8  01400220          DCW      0x0140,0x0220
0014bc  02200410          DCW      0x0220,0x0410
0014c0  08080808          DCW      0x0808,0x0808
0014c4  10041004          DCW      0x1004,0x1004
0014c8  20044004          DCW      0x2004,0x4004
0014cc  00000000          DCW      0x0000,0x0000
0014d0  000001c0          DCW      0x0000,0x01c0
0014d4  03e003e0          DCW      0x03e0,0x03e0
0014d8  01c007f0          DCW      0x01c0,0x07f0
0014dc  0dd80dd8          DCW      0x0dd8,0x0dd8
0014e0  0dd819cc          DCW      0x0dd8,0x19cc
0014e4  31c661c2          DCW      0x31c6,0x61c2
0014e8  01c00360          DCW      0x01c0,0x0360
0014ec  03600670          DCW      0x0360,0x0670
0014f0  0c380c18          DCW      0x0c38,0x0c18
0014f4  180c180c          DCW      0x180c,0x180c
0014f8  300c600c          DCW      0x300c,0x600c
0014fc  00000000          DCW      0x0000,0x0000

                          AREA ||.data||, DATA, ALIGN=1

                  TextColor
000000  0000              DCW      0x0000
                  BackColor
000002  ffff              DCW      0xffff
                  driverCode
000004  0000              DCB      0x00,0x00

;*** Start embedded assembler ***

#line 1 "GLCD_LPC1700.c"
	AREA ||.emb_text||, CODE, READONLY
	THUMB
	EXPORT |wait|
#line 90
|wait| PROC
#line 91

 nop
 BX lr
	ENDP

;*** End   embedded assembler ***
